(lp0
(dp1
Vgrow.v.08
p2
I2
sVprofit.v.01
p3
I1
sVpuppy_love.n.01
p4
I1
sVtravel.v.01
p5
I2
sVangry.a.01
p6
I1
sVproduce.v.02
p7
I2
sVthing.n.12
p8
I26
sVtwice.r.01
p9
I1
sVview.n.02
p10
I1
sVnever.r.02
p11
I4
sVkeep_off.v.01
p12
I2
sVhold.v.14
p13
I1
sVadvice.n.01
p14
I4
sVhistorical.a.01
p15
I2
sVvoice.v.02
p16
I3
sVamateur.n.02
p17
I1
sVphysically.r.01
p18
I2
sVsequel.n.02
p19
I2
sVhomosexual.n.01
p20
I2
sVstand.n.12
p21
I2
sVknow.v.10
p22
I1
sVseat.n.09
p23
I1
sVneglect.v.01
p24
I1
sVdesire.v.01
p25
I2
sVneglect.v.04
p26
I1
sVterribly.r.01
p27
I2
sVprovincial.a.02
p28
I1
sVengland.n.01
p29
I1
sVtake.v.27
p30
I2
sVtake.v.24
p31
I1
sVcast.v.03
p32
I1
sVplayer.n.01
p33
I1
sVexperienced.a.01
p34
I1
sVfame.n.01
p35
I1
sVstand.v.03
p36
I2
sVremember.v.01
p37
I1
sVplayer.n.05
p38
I2
sVcrusade.v.01
p39
I2
sVlyric.n.02
p40
I1
sVagreement.n.01
p41
I2
sVcolorado.n.03
p42
I1
sVfifty.n.01
p43
I2
sVthirty.s.01
p44
I1
sVfind_oneself.v.01
p45
I1
sVkind.n.01
p46
I4
sVinside.r.02
p47
I1
sVtrace.v.01
p48
I2
sVsay.v.08
p49
I1
sVcall.v.05
p50
I1
sVspill_the_beans.v.01
p51
I1
sVvodka.n.01
p52
I1
sVuranium.n.01
p53
I3
sVactor.n.02
p54
I2
sVschool.n.07
p55
I1
sVevery.s.02
p56
I2
sVmisplace.v.01
p57
I1
sVget_down.v.07
p58
I7
sVirrational.a.01
p59
I2
sVeasy.a.03
p60
I1
sVcannabis.n.02
p61
I1
sVwish.v.06
p62
I2
sVpolitics.n.02
p63
I4
sVwashington.n.05
p64
I1
sVprofession.n.04
p65
I5
sVuse.v.01
p66
I4
sVperfect.a.01
p67
I1
sVbecome.v.04
p68
I2
sVrecently.r.01
p69
I1
sVwell.r.13
p70
I2
sVpractice.n.05
p71
I1
sVhitler.n.01
p72
I1
sVactually.r.02
p73
I1
sVsocial.a.03
p74
I3
sVfrontal_bone.n.01
p75
I2
sVinternet.n.01
p76
I1
sVmaster.n.06
p77
I2
sVparking_lot.n.01
p78
I1
sVconstantly.r.02
p79
I3
sVgenie.n.01
p80
I1
sVoriginal.a.03
p81
I2
sVconstantly.r.01
p82
I1
sVget.v.11
p83
I2
sVtotal.v.01
p84
I2
sVfeed.v.06
p85
I1
sVrepair.n.02
p86
I2
sVinvasion.n.03
p87
I1
sVunlike.a.01
p88
I3
sVhappy.a.01
p89
I1
sVethic.n.02
p90
I2
sVvicinity.n.01
p91
I2
sVfood.n.03
p92
I2
sVprevent.v.02
p93
I1
sVunlimited.a.01
p94
I1
sVmodel.n.02
p95
I2
sVsituation.n.01
p96
I3
sVsituation.n.03
p97
I2
sVname.n.04
p98
I2
sVnight.n.07
p99
I2
sVfunction.n.03
p100
I1
sVname.n.01
p101
I3
sVname.n.02
p102
I1
sVchoose.v.01
p103
I3
sVliterally.r.02
p104
I1
sVold.a.02
p105
I3
sVmany.a.01
p106
I1
sVsurprisingly.r.01
p107
I1
sVfast.a.03
p108
I1
sVsense.n.02
p109
I1
sVquantity.n.03
p110
I1
sVact.n.04
p111
I1
sVunintentionally.r.01
p112
I1
sVaside.r.05
p113
I2
sVevent.n.03
p114
I2
sVsex.n.03
p115
I2
sVopen.a.01
p116
I2
sVsuffer.v.06
p117
I2
sVbore.v.02
p118
I1
sVusher.v.01
p119
I3
sVmake.v.43
p120
I1
sVadult.n.02
p121
I3
sVtune.n.01
p122
I1
sVreach.v.07
p123
I5
sVhat.v.02
p124
I1
sVway.n.12
p125
I4
sVminiskirt.n.01
p126
I1
sVuseless.a.01
p127
I1
sVseven.s.01
p128
I1
sVsleepwalker.n.01
p129
I1
sVthreat.n.03
p130
I2
sVwrench.n.01
p131
I2
sVvogue.n.01
p132
I1
sVvegan.n.01
p133
I1
sVnecessitate.v.01
p134
I2
sVregretful.a.01
p135
I12
sVlevel.n.07
p136
I2
sVtwo.s.01
p137
I1
sVpath.n.04
p138
I1
sVinstantaneously.r.01
p139
I2
sVmust.s.01
p140
I1
sVabout.r.07
p141
I4
sVinappropriate.a.01
p142
I3
sVblessing.n.01
p143
I1
sVwitness.v.02
p144
I7
sVpublic_toilet.n.01
p145
I1
sVproblem.n.01
p146
I2
sVdamn.n.01
p147
I2
sVwestern.a.02
p148
I1
sVscript.n.01
p149
I1
sVworldly_concern.n.01
p150
I4
sVwhole.n.02
p151
I1
sVdecisiveness.n.01
p152
I1
sVtasty.a.01
p153
I1
sVlife.n.01
p154
I2
sVstripe.n.05
p155
I2
sVlife.n.03
p156
I2
sVlife.n.02
p157
I1
sVpalpate.v.01
p158
I3
sVevil.a.01
p159
I1
sVstag_party.n.01
p160
I1
sValbum.n.02
p161
I1
sVconflict.n.01
p162
I1
sVworld_power.n.01
p163
I2
sVuseful.a.01
p164
I1
sVteach.v.01
p165
I1
sVband.n.11
p166
I2
sVknow.v.05
p167
I3
sVgame.n.05
p168
I1
sVknow.v.01
p169
I2
sVmutely.r.01
p170
I1
sVwhoremaster.n.01
p171
I1
sVweight_unit.n.02
p172
I1
sVtoss_off.v.02
p173
I2
sVrange.n.04
p174
I1
sVpilfer.v.01
p175
I1
sVgive.v.38
p176
I2
sVunionize.v.02
p177
I1
sVtaiwanese.a.01
p178
I1
sVtelevision_receiver.n.01
p179
I1
sVperformance.n.03
p180
I2
sVlarge.a.01
p181
I5
sVtip.n.03
p182
I1
sVfirst.a.06
p183
I4
sVfight.n.05
p184
I2
sVtrailer.n.04
p185
I1
sVhair.n.01
p186
I1
sVmeal.n.03
p187
I1
sVmarry.v.02
p188
I1
sVlisten.v.02
p189
I2
sVtopographic_point.n.01
p190
I1
sVconcept.n.01
p191
I2
sVcomedian.n.02
p192
I2
sVdemeanor.n.01
p193
I1
sVworker.n.03
p194
I1
sVsidereal_day.n.01
p195
I4
sVviolate.v.01
p196
I1
sVeuphemism.n.01
p197
I1
sVplay.v.02
p198
I1
sVhappen.v.04
p199
I3
sVyield.v.01
p200
I2
sVtranscript.n.02
p201
I2
sVpoor.a.04
p202
I2
sVhappen.v.02
p203
I2
sVimpact.v.01
p204
I1
sVitch.v.04
p205
I2
sVmake.v.16
p206
I1
sVgiving.n.01
p207
I2
sVthink.v.09
p208
I2
sVshanghai.v.01
p209
I1
sVthink.v.01
p210
I2
sVsong.n.05
p211
I4
sVpipe_dream.n.01
p212
I1
sVrescue.n.01
p213
I1
sVsleep_together.v.01
p214
I9
sVtrain_of_thought.n.01
p215
I2
sVjoin.v.04
p216
I1
sVdie.v.08
p217
I1
sVevaluate.v.02
p218
I1
sVcar.n.01
p219
I2
sVright.r.07
p220
I1
sVphone_number.n.01
p221
I2
sVunhappy.a.01
p222
I1
sVnonsmoker.n.02
p223
I1
sVgood.a.03
p224
I9
sVten.s.01
p225
I2
sVsubmit.v.01
p226
I2
sVground.n.09
p227
I1
sVbest.a.01
p228
I8
sVsuppose.v.01
p229
I1
sVstory.n.02
p230
I4
sVimmortality.n.02
p231
I1
sVforce.v.06
p232
I1
sVopportunity.n.01
p233
I2
sVamerican_english.n.01
p234
I2
sVoccupation.n.01
p235
I1
sVforemost.r.01
p236
I3
sVlottery.n.02
p237
I1
sVhistory.n.05
p238
I2
sVgirlfriend.n.02
p239
I2
sVa_lot.r.01
p240
I1
sVpeople.n.03
p241
I13
sVpeople.n.01
p242
I1
sVago.r.01
p243
I3
sVrifle.v.02
p244
I1
sVseries.n.07
p245
I1
sVweave.v.04
p246
I1
sVirrationally.r.01
p247
I1
sVkid.n.05
p248
I3
sVpassenger.n.01
p249
I1
sVtwist.n.13
p250
I4
sVsee.v.05
p251
I1
sVsupply.n.02
p252
I1
sVgenic.a.01
p253
I1
sVcontract.v.04
p254
I1
sVtitle.n.02
p255
I1
sVpassword.n.01
p256
I1
sVdoorway.n.01
p257
I2
sVtheme.n.03
p258
I1
sVshow.n.03
p259
I1
sVshuffle.n.01
p260
I2
sVtake.v.41
p261
I3
sVtime.n.06
p262
I3
sVtopic.n.02
p263
I2
sVplay.v.18
p264
I1
sVsupplant.v.01
p265
I1
sVmatchless.s.01
p266
I2
sVgive.v.05
p267
I2
sVpart.n.09
p268
I1
sVlack.n.01
p269
I1
sVone.s.05
p270
I4
sVone.s.06
p271
I13
sVliveliness.n.02
p272
I5
sVfear.n.03
p273
I2
sVrather.r.01
p274
I1
sVvisit.v.01
p275
I3
sVcall.v.27
p276
I1
sVfall.v.21
p277
I2
sVballad.n.02
p278
I1
sVstudy.v.05
p279
I1
sVreceive.v.02
p280
I2
sVcontinue.v.01
p281
I2
sVruin.v.06
p282
I3
sVfifty.s.01
p283
I1
sVdifferent.a.01
p284
I1
sVtrouble.n.01
p285
I1
sVquality.n.03
p286
I4
sVfictional.a.01
p287
I4
sVtry.v.01
p288
I1
sVbible.n.02
p289
I1
sVround.r.01
p290
I1
sVworkshop.n.01
p291
I2
sVmachine_politician.n.01
p292
I2
sVappear.v.04
p293
I2
sVnormal.a.03
p294
I3
sVinteresting.a.01
p295
I5
sVdue.a.03
p296
I2
sVstate_of_matter.n.01
p297
I2
sVsecond_gear.n.01
p298
I1
sVsexual_love.n.02
p299
I1
sVspirit.n.02
p300
I1
sVsustain.v.04
p301
I1
sVsubstantial.a.03
p302
I1
sVmodern.a.01
p303
I1
sVfrisson.n.01
p304
I1
sVexamination.n.02
p305
I1
sVgame.n.11
p306
I2
sVlee.n.08
p307
I1
sVtruly.r.01
p308
I3
sVrelationship.n.03
p309
I1
sVowner.n.02
p310
I2
sVrepent.v.02
p311
I1
sVmemorize.v.01
p312
I2
sVwant.v.05
p313
I4
sVsurvive.v.01
p314
I2
sVwant.v.02
p315
I1
sVrepugnance.n.01
p316
I3
sVrelease.n.08
p317
I2
sVcatch.v.07
p318
I1
sVtick.v.02
p319
I1
sVconsequence.n.03
p320
I1
sVconsequence.n.02
p321
I2
sVrun.v.34
p322
I3
sVcommon.a.02
p323
I1
sVsuck.v.04
p324
I1
sVorder.n.01
p325
I1
sVcollege.n.03
p326
I2
sVnarrative.n.01
p327
I2
sVhighly.r.03
p328
I4
sVnightmare.n.02
p329
I1
sVone.n.02
p330
I3
sVbite.n.04
p331
I1
sVone.n.01
p332
I2
sVkidnap.v.01
p333
I2
sVlast.a.02
p334
I2
sVwatch.n.01
p335
I2
sVabsolute.n.01
p336
I2
sVhate.v.01
p337
I3
sVtrust.v.01
p338
I2
sVinterested.a.01
p339
I2
sVrespect.v.02
p340
I4
sVbetter.v.03
p341
I1
sVshot.n.09
p342
I1
sVactually.r.01
p343
I2
sVstate.n.04
p344
I1
sVactually.r.04
p345
I1
sVcharacter.n.05
p346
I2
sVthink.v.13
p347
I1
sVthink.v.10
p348
I2
sVprince.n.01
p349
I1
sVeye.n.05
p350
I1
sVswindle.n.01
p351
I2
sVquote.v.04
p352
I1
sVtrain.v.02
p353
I1
sVtrain.v.01
p354
I2
sVgain.v.08
p355
I2
sVlike.n.02
p356
I2
sVwyrd.n.01
p357
I2
sVgain.v.05
p358
I2
sVeat.v.02
p359
I1
sVpublic.a.01
p360
I1
sVpermanently.r.01
p361
I2
sVhope.v.03
p362
I1
sVperfectly.r.02
p363
I1
sVunvoiced.a.01
p364
I1
sVsubstitute.v.02
p365
I1
sVthing.n.08
p366
I1
sVthing.n.09
p367
I2
sVthing.n.05
p368
I1
sVback.r.02
p369
I2
sVpotter.n.01
p370
I1
sVdeath.n.08
p371
I1
sVnatural_depression.n.01
p372
I1
sVswallow.n.02
p373
I1
sVanxiety.n.02
p374
I1
sVsport.n.05
p375
I1
sVdetermine.v.08
p376
I1
sVadolescent.n.01
p377
I1
sVcrazy.n.01
p378
I1
sVgrant.v.05
p379
I1
sVpolice.n.01
p380
I1
sVtell.v.07
p381
I1
sVpet.n.03
p382
I5
sVmeet.v.10
p383
I1
sVunoriginality.n.02
p384
I1
sVexpose.v.03
p385
I1
sVreason.n.06
p386
I1
sVreason.n.03
p387
I1
sVfar.r.05
p388
I1
sVlawyer.n.01
p389
I1
sVtouch.n.10
p390
I3
sVnewcomer.n.01
p391
I2
sVunited_states.n.01
p392
I1
sVright_field.n.01
p393
I1
sVparent.n.02
p394
I7
sVsentence.n.01
p395
I1
sVsmall.a.01
p396
I1
sVexperience.n.01
p397
I1
sVunderstand.v.03
p398
I1
sVexperience.n.03
p399
I4
sVworkplace.n.01
p400
I1
sVwholly.r.01
p401
I4
sVword.n.07
p402
I1
sVask.v.05
p403
I4
sVrefutation.n.01
p404
I2
sVmovie.n.01
p405
I8
sVstrange.a.01
p406
I7
sVgross.a.01
p407
I1
sVchild.n.04
p408
I4
sVplot.n.01
p409
I2
sVannounce.v.04
p410
I1
sVadmit.v.08
p411
I2
sVconclude.v.04
p412
I1
sVstill.r.04
p413
I1
sVcomplete.a.01
p414
I3
sVfuck.n.01
p415
I2
sVshare.n.01
p416
I1
sVrecommend.v.03
p417
I2
sVreal.a.06
p418
I2
sVrule.n.03
p419
I1
sVskill.n.02
p420
I2
sVfive.s.01
p421
I1
sVcontend.v.06
p422
I1
sVrest.n.07
p423
I1
sVself.n.02
p424
I3
sVvery.r.01
p425
I7
sVcamping.n.01
p426
I2
sVever.r.03
p427
I5
sVever.r.01
p428
I1
sVincident.n.02
p429
I1
sVtraverse.v.01
p430
I2
sVmurderer.n.01
p431
I2
sVend.n.06
p432
I1
sVopposite.a.02
p433
I1
sVdeep.a.03
p434
I2
sVlike.v.04
p435
I3
sVawkward.a.02
p436
I3
sVjoke.n.04
p437
I5
sVnickname.n.02
p438
I2
sVmoment.n.06
p439
I2
sVsexual_activity.n.01
p440
I4
sVwomanhood.n.02
p441
I2
sVmoment.n.02
p442
I1
sVminor.a.07
p443
I1
sVyear.n.03
p444
I5
sVdate.n.06
p445
I2
sVvideo_recording.n.01
p446
I4
sVlife.n.07
p447
I2
sVman.n.01
p448
I2
sVwish.v.02
p449
I4
sVmystery.n.02
p450
I2
sVpilot_program.n.02
p451
I2
sVbesides.r.01
p452
I1
sVscat.v.01
p453
I2
sVstate.v.01
p454
I1
sVaccept.v.02
p455
I1
sVpolitical_campaign.n.01
p456
I2
sVdysprosium.n.01
p457
I1
sVetiquette.n.01
p458
I1
sVattempt.n.01
p459
I1
sVmasthead.n.01
p460
I2
sVfall.v.04
p461
I2
sVtrade_name.n.01
p462
I2
sVrender.v.04
p463
I2
sVfuture.n.03
p464
I1
sVlook.v.02
p465
I2
sVlegal.a.04
p466
I1
sVpull.v.17
p467
I1
sVyoung.n.09
p468
I2
sVmodestly.r.01
p469
I1
sVbetter.r.02
p470
I1
sVbeat.n.01
p471
I1
sVplot.n.04
p472
I2
sVquestion.n.06
p473
I4
sVoregon.n.01
p474
I1
sVtoy_dog.n.01
p475
I1
sVsyndicate.n.01
p476
I2
sVunderstand.v.04
p477
I2
sVcontest.n.02
p478
I1
sVhealth.n.02
p479
I1
sVtripper.n.04
p480
I2
sVuse.v.06
p481
I3
sVmistake.n.02
p482
I3
sVperplex.v.01
p483
I1
sVpolish.n.02
p484
I1
sVshape.v.02
p485
I2
sVgo_steady.v.01
p486
I2
sVperson.n.01
p487
I5
sVkill.v.01
p488
I2
sVcurrent.a.01
p489
I5
sVsequence.n.03
p490
I1
sVsubject.n.06
p491
I1
sVrelative.n.02
p492
I2
sVstartle.v.02
p493
I1
sVanimal.n.01
p494
I2
sVpopulation.n.05
p495
I2
sVshudder.v.02
p496
I2
sVwrinkle.n.01
p497
I2
sVstopping_point.n.01
p498
I1
sVprospect.n.01
p499
I1
sVkeep.n.02
p500
I2
sa(dp501
S'concept'
p502
I2
sS'chain'
p503
I1
sS'lack'
p504
I1
sS'alien'
p505
I1
sS'Parents'
p506
I3
sS'battle'
p507
I1
sS'hate'
p508
I3
sS'superpower'
p509
I2
sS'seemed'
p510
I2
sS'Pilots'
p511
I1
sS'permanently'
p512
I2
sS'Western'
p513
I1
sS'sorry'
p514
I3
sS'women'
p515
I1
sS'worth'
p516
I1
sS'case'
p517
I1
sS'worse'
p518
I1
sS'song'
p519
I4
sS'far'
p520
I1
sS'horror'
p521
I3
sS'hilarious'
p522
I4
sS'worst'
p523
I6
sS'awful'
p524
I2
sS'little'
p525
I1
sS'ticker'
p526
I2
sS'entire'
p527
I2
sS'school'
p528
I1
sS'epic'
p529
I1
sS'level'
p530
I2
sS'skills'
p531
I1
sS'turns'
p532
I2
sS'loneliness'
p533
I1
sS'accidentally'
p534
I1
sS'try'
p535
I1
sS'convenience'
p536
I1
sS'irrationally'
p537
I1
sS'stereotypical'
p538
I1
sS'round'
p539
I1
sS'prevent'
p540
I1
sS'work'
p541
I1
sS'neighborhood'
p542
I2
sS'regret'
p543
I1
sS'trend'
p544
I1
sS'MOVIE'
p545
I1
sS'go'
p546
I1
sS'video'
p547
I4
sS'depression'
p548
I1
sS'educate'
p549
I2
sS'defence'
p550
I2
sS'High-School'
p551
I2
sS'cast'
p552
I1
sS'crush'
p553
I1
sS';'
p554
I1
sS'America'
p555
I1
sS'ever'
p556
I6
sS'public'
p557
I1
sS'told'
p558
I1
sS'creepiest'
p559
I1
sS'men'
p560
I1
sS'understanding'
p561
I2
sS'tracks'
p562
I2
sS'others'
p563
I2
sS'aftermath'
p564
I2
sS'['
p565
I1
sS'kidnapped'
p566
I2
sS'non-sexual'
p567
I1
sS'great'
p568
I6
sS'Chinese'
p569
I1
sS'impacted'
p570
I1
sS'30'
p571
I1
sS'completely'
p572
I1
sS'experience'
p573
I5
sS'social'
p574
I3
sS'weird'
p575
I5
sS'makes'
p576
I5
sS'genuinely'
p577
I3
sS'teenage'
p578
I1
sS'love'
p579
I4
sS'campaign'
p580
I2
sS'win'
p581
I2
sS'When'
p582
I1
sS'crazy'
p583
I2
sS'highly'
p584
I4
sS'batshit'
p585
I1
sS'unhappy'
p586
I1
sS'dumbest'
p587
I2
sS'plot'
p588
I2
sS'use'
p589
I3
sS'lottery'
p590
I1
sS'takes'
p591
I1
sS'would'
p592
I31
sS'angry'
p593
I1
sS'two'
p594
I1
sS'sports'
p595
I1
sS'live'
p596
I3
sS'scariest'
p597
I2
sS'recommend'
p598
I2
sS'taken'
p599
I1
sS'type'
p600
I2
sS'minor'
p601
I1
sS'knows'
p602
I2
sS'becomes'
p603
I1
sS'impress'
p604
I1
sS'hurt'
p605
I2
sS'SHITTY'
p606
I1
sS'ignorant'
p607
I1
sS'given'
p608
I2
sS'must'
p609
I1
sS'passenger'
p610
I1
sS'ever-so-slightly'
p611
I1
sS'word'
p612
I1
sS'People'
p613
I3
sS'Go-To'
p614
I1
sS'movies'
p615
I3
sS'hardest'
p616
I1
sS'learn'
p617
I1
sS'believed'
p618
I1
sS'making'
p619
I1
sS'Hitler'
p620
I1
sS'history'
p621
I2
sS'Dungeon'
p622
I2
sS'vodka'
p623
I1
sS'embarrassing'
p624
I2
sS'give'
p625
I4
sS'awesome'
p626
I1
sS'organized'
p627
I1
sS'fuck'
p628
I2
sS'states'
p629
I2
sS'Relatives'
p630
I2
sS'way'
p631
I2
sS'something'
p632
I6
sS'want'
p633
I3
sS'sense'
p634
I1
sS'occur'
p635
I1
sS'absolute'
p636
I2
sS'provincial'
p637
I1
sS'awkward'
p638
I3
sS'turn'
p639
I2
sS'country'
p640
I1
sS'Who'
p641
I1
sS'animal'
p642
I2
sS'instead'
p643
I1
sS'mysteries'
p644
I2
sS'okay'
p645
I1
sS'irrational'
p646
I2
sS'huge'
p647
I1
sS'advice'
p648
I4
sS'mankind'
p649
I1
sS'coming'
p650
I4
sS'date'
p651
I2
sS'invasion'
p652
I1
sS'ethics'
p653
I2
sS'All'
p654
I2
sS'devolve'
p655
I2
sS'subreddits'
p656
I1
sS'fictional'
p657
I4
sS'childhood'
p658
I1
sS'funniest'
p659
I4
sS'every'
p660
I2
sS'dream'
p661
I1
sS'order'
p662
I1
sS'What'
p663
I148
sS'displayed'
p664
I1
sS'choose'
p665
I3
sS'years'
p666
I4
sS'course'
p667
I1
sS'lyric'
p668
I1
sS'Nonsmokers'
p669
I1
sS'horny'
p670
I1
sS'subs'
p671
I1
sS'perfect'
p672
I1
sS'police'
p673
I1
sS'interesting'
p674
I5
sS'actually'
p675
I3
sS'better'
p676
I2
sS'immortality'
p677
I1
sS'button'
p678
I2
sS'easier'
p679
I1
sS'happened'
p680
I2
sS'modestly'
p681
I1
sS'someone'
p682
I3
sS'seeking'
p683
I1
sS'food'
p684
I2
sS'pick-up'
p685
I1
sS'practice'
p686
I1
sS'scene'
p687
I1
sS'STRANGEST'
p688
I1
sS'band'
p689
I2
sS'day'
p690
I2
sS'masters'
p691
I2
sS'name'
p692
I5
sS'always'
p693
I3
sS'Potter'
p694
I1
sS'found'
p695
I4
sS'entirely'
p696
I2
sS'meal'
p697
I1
sS'trailer'
p698
I1
sS'everyone'
p699
I7
sS'weight'
p700
I1
sS'series'
p701
I1
sS'idea'
p702
I1
sS'joined'
p703
I1
sS'passwords'
p704
I1
sS'Which'
p705
I9
sS'year'
p706
I1
sS'happen'
p707
I1
sS'event'
p708
I2
sS'really'
p709
I8
sS'album'
p710
I1
sS'large'
p711
I1
sS'Lawyers'
p712
I1
sS"'"
p713
I1
sS'announces'
p714
I1
sS'useless'
p715
I1
sS'since'
p716
I3
sS'hooked'
p717
I1
sS'participants'
p718
I1
sS'health'
p719
I1
sS'7'
p720
I1
sS'internet'
p721
I2
sS'got'
p722
I4
sS'red'
p723
I2
sS'outrageous'
p724
I1
sS'cars'
p725
I2
sS'unexplained'
p726
I2
sS'reason'
p727
I2
sS'lucrative'
p728
I1
sS'ask'
p729
I4
sS'wanted'
p730
I3
sS'beginning'
p731
I2
sS'owners'
p732
I2
sS'prepare'
p733
I1
sS'thread'
p734
I2
sS'e.g'
p735
I1
sS'could'
p736
I4
sS'days'
p737
I2
sS'keep'
p738
I3
sS'thing'
p739
I24
sS'celebrity'
p740
I1
sS'threat'
p741
I2
sS'chills'
p742
I1
sS'onto'
p743
I2
sS'think'
p744
I6
sS'first'
p745
I7
sS'euphemism'
p746
I1
sS'benefited'
p747
I1
sS'feel'
p748
I3
sS'number'
p749
I2
sS'one'
p750
I23
sS'fantasy'
p751
I1
sS'done'
p752
I2
sS'says'
p753
I1
sS'sounds'
p754
I3
sS'open'
p755
I2
sS'suck'
p756
I1
sS'story'
p757
I6
sS'toy'
p758
I1
sS'checked'
p759
I1
sS'nickname'
p760
I2
sS'caught'
p761
I2
sS'arsehole'
p762
I2
sS'physically'
p763
I2
sS'shiver'
p764
I2
sS'perfectly'
p765
I1
sS'gives'
p766
I3
sS'mini'
p767
I1
sS'eyes'
p768
I1
sS'craziest'
p769
I2
sS'relationship'
p770
I1
sS'park'
p771
I1
sS'part'
p772
I2
sS'seat'
p773
I1
sS'population'
p774
I2
sS'10'
p775
I2
sS'kind'
p776
I4
sS'anxiety'
p777
I1
sS'Colorado'
p778
I1
sS'culture'
p779
I1
sS"N'T"
p780
I1
sS'future'
p781
I1
sS'historical'
p782
I2
sS'feeling'
p783
I3
sS'wandering'
p784
I1
sS'DO'
p785
I1
sS'modern'
p786
I1
sS'marijuana'
p787
I1
sS'all-time'
p788
I1
sS'say'
p789
I2
sS'cringeworthy'
p790
I1
sS'comedian'
p791
I2
sS'seen'
p792
I3
sS'seem'
p793
I2
sS'saw'
p794
I2
sS'studying'
p795
I1
sS'self'
p796
I3
sS'do/experience'
p797
I1
sS'take'
p798
I4
sS'They'
p799
I1
sS'experienced'
p800
I2
sS'normal'
p801
I3
sS'quote'
p802
I1
sS'men/women'
p803
I1
sS'X-files'
p804
I2
sS'eaten'
p805
I2
sS'The'
p806
I1
sS']'
p807
I1
sS'Whats'
p808
I4
sS'consequences'
p809
I1
sS'pulled'
p810
I1
sS'Megathread'
p811
I1
sS'Fuck'
p812
I1
sS'playing'
p813
I2
sS'Earth'
p814
I1
sS'shop'
p815
I2
sS'show'
p816
I4
sS'cheat'
p817
I2
sS'lay'
p818
I1
sS'celebrities'
p819
I1
sS'subreddit'
p820
I1
sS'hack'
p821
I2
sS'fear'
p822
I2
sS'current'
p823
I5
sS'Reddit'
p824
I19
sS'snack'
p825
I1
sS'title'
p826
I1
sS'('
p827
I2
sS'Reddditors'
p828
I1
sS'going'
p829
I1
sS'pretty'
p830
I1
sS'hope'
p831
I1
sS'get'
p832
I4
sS'beat'
p833
I1
sS'goosebumps'
p834
I2
sS'famous'
p835
I2
sS'ones'
p836
I1
sS'rest'
p837
I1
sS'wedding'
p838
I1
sS'learned'
p839
I1
sS'bar'
p840
I2
sS'Fucking'
p841
I1
sS'married'
p842
I1
sS'Washington'
p843
I1
sS'twice'
p844
I1
sS'bad'
p845
I5
sS'common'
p846
I1
sS'shots'
p847
I1
sS'silently'
p848
I1
sS'farthest'
p849
I1
sS'Pet'
p850
I2
sS'sex'
p851
I6
sS'opposite'
p852
I1
sS'see'
p853
I3
sS'Bible'
p854
I1
sS'college'
p855
I2
sS'jobs'
p856
I1
sS'best'
p857
I9
sS'subject'
p858
I4
sS'repairs'
p859
I2
sS'still'
p860
I1
sS'camping'
p861
I2
sS'inappropriate'
p862
I3
sS'ways'
p863
I2
sS'movie'
p864
I4
sS'freshmen'
p865
I2
sS'Oregon'
p866
I1
sS'closed'
p867
I1
sS'reddit'
p868
I5
sS'never'
p869
I4
sS'recently'
p870
I1
sS'exam'
p871
I1
sS'useful'
p872
I1
sS'literally'
p873
I1
sS'nightmares'
p874
I1
sS'incident'
p875
I1
sS'Sewer'
p876
I1
sS'Smokers'
p877
I1
sS'approval'
p878
I1
sS'improve'
p879
I1
sS'instant'
p880
I2
sS'memorized'
p881
I1
sS'joke'
p882
I5
sS'job'
p883
I1
sS'players'
p884
I2
sS'admit'
p885
I2
sS'games'
p886
I1
sS'receives'
p887
I1
sS'whole'
p888
I1
sS'asked'
p889
I1
sS'supply'
p890
I1
sS'Girls'
p891
I2
sS'trust'
p892
I2
sS'due'
p893
I2
sS'tiny'
p894
I1
sS'genetic'
p895
I1
sS'much'
p896
I1
sS'Women'
p897
I1
sS'life'
p898
I12
sS'gay'
p899
I2
sS'quantities'
p900
I1
sS'else'
p901
I1
sS'post/comment'
p902
I1
sS'child'
p903
I4
sS'last'
p904
I2
sS'worked'
p905
I2
sS'lousy'
p906
I1
sS'pilot'
p907
I1
sS'And'
p908
I2
sS'air'
p909
I1
sS'strangest'
p910
I7
sS'ugly'
p911
I1
sS'behavior'
p912
I1
sS'many'
p913
I1
sS'situation'
p914
I5
sS'instantly'
p915
I2
sS'frustrating'
p916
I1
sS'mistake'
p917
I3
sS'almost'
p918
I4
sS'twists'
p919
I2
sS'Redditors'
p920
I7
sS'surprisingly'
p921
I1
sS'encountered'
p922
I1
sS'respected'
p923
I4
sS'good'
p924
I9
sS'film/series'
p925
I2
sS'You'
p926
I6
sS'blab'
p927
I1
sS'everyday'
p928
I3
sS'funny'
p929
I2
sS'different'
p930
I4
sS')'
p931
I2
sS'things'
p932
I6
sS'make'
p933
I6
sS'forehead'
p934
I2
sS'rules'
p935
I1
sS'gets'
p936
I1
sS'used'
p937
I2
sS'itch'
p938
I2
sS'I'
p939
I3
sS'drink'
p940
I1
sS'drives'
p941
I1
sS'evil'
p942
I1
sS'moment'
p943
I2
sS'fucked'
p944
I2
sS'%'
p945
I1
sS'opportunity'
p946
I2
sS'kid'
p947
I3
sS'break'
p948
I1
sS'Adults'
p949
I3
sS'older'
p950
I2
sS'miss'
p951
I1
sS'anybody'
p952
I2
sS'fighting'
p953
I1
sS'thought'
p954
I1
sS'person'
p955
I2
sS'flags'
p956
I2
sS'greatest'
p957
I2
sS'In'
p958
I1
sS'genie'
p959
I1
sS'If'
p960
I10
sS'etiquette'
p961
I1
sS'sentence'
p962
I1
sS'hillbilly'
p963
I1
sS'press'
p964
I2
sS'kill'
p965
I2
sS'using'
p966
I2
sS'followed'
p967
I2
sS'skill'
p968
I1
sS'death'
p969
I2
sS'veganism'
p970
I1
sS'family'
p971
I2
sS'hated'
p972
I1
sS'workers'
p973
I1
sS'character'
p974
I4
sS'killed'
p975
I2
sS'book'
p976
I1
sS'parents'
p977
I4
sS'teenager'
p978
I1
sS'role'
p979
I1
sS'totally'
p980
I1
sS'Apart'
p981
I2
sS'real'
p982
I3
sS'...'
p983
I2
sS'around'
p984
I1
sS'government'
p985
I4
sS'read'
p986
I1
sS'unlimited'
p987
I1
sS'0/10'
p988
I1
sS'shitty'
p989
I2
sS'game'
p990
I4
sS'five'
p991
I1
sS'know'
p992
I3
sS'judge'
p993
I1
sS'world'
p994
I4
sS'bit'
p995
I1
sS'execution'
p996
I2
sS'10/10'
p997
I1
sS'CrossFit'
p998
I1
sS'England'
p999
I1
sS'like'
p1000
I7
sS'gift'
p1001
I2
sS'50'
p1002
I3
sS'ignore'
p1003
I1
sS'AskReddit'
p1004
I1
sS'night'
p1005
I2
sS'become'
p1006
I1
sS'program/method'
p1007
I1
sS'Prince'
p1008
I1
sS'names'
p1009
I1
sS'right'
p1010
I2
sS'old'
p1011
I1
sS'people'
p1012
I11
sS'Excel'
p1013
I1
sS'back'
p1014
I2
sS'hair'
p1015
I1
sS'born'
p1016
I1
sS'Damn'
p1017
I2
sS'escape'
p1018
I2
sS'Bubba'
p1019
I1
sS'happens'
p1020
I3
sS'gross'
p1021
I1
sS'Experienced'
p1022
I1
sS'Lee'
p1023
I1
sS'Jimbob'
p1024
I1
sS'pet'
p1025
I3
sS'memories'
p1026
I2
sS'avoid'
p1027
I2
sS'Men'
p1028
I1
sS'legal'
p1029
I1
sS'ANYONE'
p1030
I1
sS'favourite'
p1031
I2
sS'lifehacks'
p1032
I2
sS'dating'
p1033
I2
sS'q-tip'
p1034
I2
sS'run'
p1035
I3
sS'business'
p1036
I1
sS'seconds'
p1037
I2
sS'lose'
p1038
I1
sS"'this"
p1039
I1
sS'memorable'
p1040
I1
sS'getting'
p1041
I2
sS'favorite'
p1042
I5
sS'US'
p1043
I3
sS'Roy'
p1044
I1
sS'Americans'
p1045
I2
sS'stand'
p1046
I4
sS'mixed'
p1047
I1
sS'Gamers'
p1048
I1
sS'within'
p1049
I1
sS'profession'
p1050
I5
sS'Young'
p1051
I2
sS'copies'
p1052
I2
sS'next'
p1053
I1
sS'murderers'
p1054
I2
sS'unoriginality'
p1055
I1
sS'..'
p1056
I2
sS'constantly'
p1057
I1
sS'question'
p1058
I4
sS'fast'
p1059
I1
sS'fight'
p1060
I2
sS'unspoken'
p1061
I2
sS'Sleepwalkers'
p1062
I1
sS'biggest'
p1063
I4
sS'call'
p1064
I1
sS':'
p1065
I6
sS'amateur'
p1066
I1
sS'complete'
p1067
I3
sS'sequel'
p1068
I2
sS'hear'
p1069
I2
sS'Harry'
p1070
I1
sS'episode'
p1071
I1
sS'line'
p1072
I2
sS'made'
p1073
I1
sS'places'
p1074
I1
sS'wish'
p1075
I4
sS'ruined'
p1076
I3
sS"'re"
p1077
I3
sS'doors'
p1078
I2
sS'problem'
p1079
I1
sS'called'
p1080
I1
sS'gone'
p1081
I1
sS'deep'
p1082
I2
sS'How'
p1083
I9
sS'tasty'
p1084
I1
sS'trip'
p1085
I2
sS"'ll"
p1086
I2
sS'dying'
p1087
I1
sS'contest'
p1088
I1
sS'TV'
p1089
I1
sS'bored'
p1090
I1
sS'tip'
p1091
I1
sS'actor'
p1092
I1
sS'Delivery'
p1093
I1
sS'interested'
p1094
I2
sS'actors'
p1095
I1
sS'Besides'
p1096
I1
sS'fucked-up'
p1097
I1
sS'smell'
p1098
I1
sS'realize'
p1099
I2
sS'poor'
p1100
I2
sS'models'
p1101
I2
sS'dies'
p1102
I1
sS'finale'
p1103
I1
sS'weirdest'
p1104
I5
sS'replace'
p1105
I1
sS'chance'
p1106
I1
sS'brands'
p1107
I2
sS"'m"
p1108
I2
sS'ago'
p1109
I3
sS'happier'
p1110
I1
sS'tricks'
p1111
I1
sS'required'
p1112
I1
sS'original'
p1113
I2
sS'2000'
p1114
I1
sS'time'
p1115
I3
sS'understand'
p1116
I2
sS'misheard'
p1117
I1
sS'starting'
p1118
I1
sS'decision'
p1119
I1
saI1440
a.