(lp0
(dp1
Vamerican_english.n.01
p2
I1
sVcomplete.a.01
p3
I1
sVreach.v.07
p4
I1
sVthing.n.12
p5
I1
sVshuffle.n.01
p6
I1
sVnever.r.02
p7
I2
sVtake.v.41
p8
I1
sVadvice.n.01
p9
I1
sVkind.n.01
p10
I1
sVregretful.a.01
p11
I2
sVlevel.n.07
p12
I1
sVnewcomer.n.01
p13
I1
sVparent.n.02
p14
I1
sVone.s.05
p15
I2
sVone.s.06
p16
I3
sVwitness.v.02
p17
I1
sVexperience.n.03
p18
I1
sVstand.n.12
p19
I1
sVvisit.v.01
p20
I1
sVwholly.r.01
p21
I1
sVdamn.n.01
p22
I1
sVrefutation.n.01
p23
I1
sVmovie.n.01
p24
I1
sVlife.n.01
p25
I1
sVlife.n.03
p26
I1
sVcontinue.v.01
p27
I1
sVterribly.r.01
p28
I1
sVstrange.a.01
p29
I1
sVruin.v.06
p30
I1
sVplot.n.01
p31
I1
sVadmit.v.08
p32
I1
sVgrow.v.08
p33
I1
sVgive.v.05
p34
I1
sVreal.a.06
p35
I1
sVrepugnance.n.01
p36
I1
sVworkshop.n.01
p37
I1
sVinteresting.a.01
p38
I1
sVstate_of_matter.n.01
p39
I1
sVfifty.n.01
p40
I1
sVself.n.02
p41
I1
sVperformance.n.03
p42
I1
sVcamping.n.01
p43
I1
sVtrace.v.01
p44
I1
sVconcept.n.01
p45
I1
sVrepair.n.02
p46
I1
sVcomedian.n.02
p47
I1
sVuranium.n.01
p48
I1
sVago.r.01
p49
I1
sVsidereal_day.n.01
p50
I1
sVawkward.a.02
p51
I1
sVjoke.n.04
p52
I2
sVconsequence.n.02
p53
I1
sVrun.v.34
p54
I1
sVtranscript.n.02
p55
I1
sVpoor.a.04
p56
I1
sVpolitics.n.02
p57
I2
sVcollege.n.03
p58
I1
sVprofession.n.04
p59
I2
sVyear.n.03
p60
I1
sVvideo_recording.n.01
p61
I1
sVnarrative.n.01
p62
I1
sVhighly.r.03
p63
I2
sVtrain_of_thought.n.01
p64
I1
sVone.n.01
p65
I1
sVpolitical_campaign.n.01
p66
I1
sVcar.n.01
p67
I1
sVmaster.n.06
p68
I1
sVplayer.n.05
p69
I1
sVabsolute.n.01
p70
I1
sVhate.v.01
p71
I1
sVtotal.v.01
p72
I1
sVrespect.v.02
p73
I2
sVfall.v.04
p74
I1
sVten.s.01
p75
I1
sVlook.v.02
p76
I1
sVcharacter.n.05
p77
I1
sVbest.a.01
p78
I1
sVprince.n.01
p79
I1
sVmodel.n.02
p80
I1
sVsituation.n.03
p81
I1
sVnight.n.07
p82
I1
sVlike.n.02
p83
I1
sVwyrd.n.01
p84
I1
sVunderstand.v.04
p85
I1
sVtripper.n.04
p86
I1
sVmistake.n.02
p87
I1
sVshape.v.02
p88
I1
sVgo_steady.v.01
p89
I1
sVperson.n.01
p90
I1
sVkill.v.01
p91
I1
sVpeople.n.03
p92
I1
sVback.r.02
p93
I1
sVgiving.n.01
p94
I1
sVmystery.n.02
p95
I1
sVsleep_together.v.01
p96
I1
sVanimal.n.01
p97
I1
sVtwist.n.13
p98
I2
sVkeep.n.02
p99
I1
sa(dp100
S'shop'
p101
I1
sS'What'
p102
I17
sS'concept'
p103
I1
sS'years'
p104
I1
sS'kill'
p105
I1
sS'love'
p106
I1
sS'hate'
p107
I1
sS'Reddit'
p108
I2
sS'execution'
p109
I1
sS'college'
p110
I1
sS'interesting'
p111
I1
sS'parents'
p112
I1
sS'real'
p113
I1
sS'government'
p114
I2
sS'horror'
p115
I1
sS'game'
p116
I1
sS'worst'
p117
I1
sS'awful'
p118
I1
sS'one'
p119
I6
sS'day'
p120
I1
sS'masters'
p121
I1
sS'like'
p122
I1
sS'gift'
p123
I1
sS'level'
p124
I1
sS'turns'
p125
I1
sS'50'
p126
I1
sS'experience'
p127
I1
sS'bad'
p128
I1
sS'night'
p129
I1
sS'found'
p130
I1
sS'entirely'
p131
I1
sS'Prince'
p132
I1
sS'everyone'
p133
I1
sS'back'
p134
I1
sS'see'
p135
I1
sS'Damn'
p136
I1
sS'thing'
p137
I1
sS'best'
p138
I1
sS'repairs'
p139
I1
sS'defence'
p140
I1
sS'High-School'
p141
I1
sS'movie'
p142
I1
sS'freshmen'
p143
I1
sS'video'
p144
I1
sS'hilarious'
p145
I1
sS'got'
p146
I1
sS'dating'
p147
I1
sS'reddit'
p148
I1
sS'run'
p149
I1
sS'cars'
p150
I1
sS'never'
p151
I2
sS'story'
p152
I1
sS'others'
p153
I1
sS'aftermath'
p154
I1
sS'['
p155
I1
sS'great'
p156
I2
sS'instant'
p157
I1
sS'thread'
p158
I1
sS'People'
p159
I1
sS'joke'
p160
I2
sS'US'
p161
I1
sS'keep'
p162
I1
sS'turn'
p163
I1
sS'admit'
p164
I1
sS'Americans'
p165
I1
sS'stand'
p166
I1
sS'weird'
p167
I1
sS'makes'
p168
I1
sS'followed'
p169
I1
sS'campaign'
p170
I1
sS'profession'
p171
I2
sS'highly'
p172
I2
sS'unexplained'
p173
I1
sS'would'
p174
I2
sS'film/series'
p175
I1
sS'copies'
p176
I1
sS'scariest'
p177
I1
sS'type'
p178
I1
sS'life'
p179
I2
sS'complete'
p180
I1
sS'understand'
p181
I1
sS'worked'
p182
I1
sS'And'
p183
I1
sS'states'
p184
I1
sS'kind'
p185
I1
sS'ruined'
p186
I1
sS'strangest'
p187
I1
sS'situation'
p188
I1
sS'mistake'
p189
I1
sS'Dungeon'
p190
I1
sS'give'
p191
I1
sS'Redditors'
p192
I1
sS'respected'
p193
I2
sS'How'
p194
I1
sS'comedian'
p195
I1
sS'something'
p196
I1
sS'You'
p197
I1
sS'seem'
p198
I1
sS'absolute'
p199
I1
sS'funny'
p200
I1
sS"'ll"
p201
I1
sS'awkward'
p202
I1
sS'players'
p203
I1
sS'self'
p204
I1
sS'trip'
p205
I1
sS'models'
p206
I1
sS'take'
p207
I1
sS'animal'
p208
I1
sS'mysteries'
p209
I1
sS'10'
p210
I1
sS'poor'
p211
I1
sS'favourite'
p212
I1
sS'advice'
p213
I1
sS'X-files'
p214
I1
sS'coming'
p215
I2
sS']'
p216
I1
sS'ago'
p217
I1
sS'Whats'
p218
I2
sS'camping'
p219
I1
sS'Megathread'
p220
I1
sS'person'
p221
I1
sS'funniest'
p222
I1
sS'make'
p223
I1
sS'If'
p224
I1
saI161
a.