(lp0
(dp1
Vpuppy_love.n.01
p2
I1
sVangry.a.01
p3
I1
sVproduce.v.02
p4
I1
sVthing.n.12
p5
I18
sVdecide.v.03
p6
I1
sVview.n.02
p7
I1
sVnever.r.02
p8
I5
sVkeep_off.v.01
p9
I1
sVadvice.n.01
p10
I3
sVhistorical.a.01
p11
I1
sVproduct.n.05
p12
I1
sVdie.n.03
p13
I1
sVopinion.n.05
p14
I1
sVvoice.v.02
p15
I3
sVorder.v.01
p16
I2
sVglad.a.01
p17
I1
sVphysically.r.01
p18
I2
sVsequel.n.02
p19
I2
sVruin.n.04
p20
I1
sVwait.v.04
p21
I1
sVhomosexual.n.01
p22
I1
sVenjoy.v.04
p23
I1
sVseat.n.09
p24
I1
sVneglect.v.01
p25
I1
sVdesire.v.01
p26
I1
sVengland.n.01
p27
I1
sVtake.v.27
p28
I5
sVsad.a.01
p29
I1
sVcast.v.03
p30
I1
sVtake.v.29
p31
I1
sVgive.v.05
p32
I1
sVstand.v.04
p33
I1
sVwake_up.v.02
p34
I1
sVregion.n.04
p35
I1
sVlyric.n.02
p36
I1
sVtoday.n.02
p37
I1
sVagreement.n.01
p38
I1
sVinwardly.r.01
p39
I1
sVpunishment.n.01
p40
I1
sVbit.n.05
p41
I2
sVmemory.n.05
p42
I1
sVthirty.s.01
p43
I1
sVclassical.a.01
p44
I1
sVfind_oneself.v.01
p45
I5
sVtime.n.06
p46
I5
sVinside.r.02
p47
I1
sVsay.v.09
p48
I2
sVpermanently.r.01
p49
I1
sVsecond.n.01
p50
I2
sVseem.v.04
p51
I2
sVvodka.n.01
p52
I1
sVeurope.n.01
p53
I1
sVmake.v.02
p54
I1
sVuranium.n.01
p55
I1
sVactor.n.02
p56
I2
sVevery.s.02
p57
I3
sVsupermarket.n.01
p58
I1
sVchange.v.02
p59
I2
sVmisplace.v.01
p60
I1
sVget_down.v.07
p61
I3
sVirrational.a.01
p62
I1
sVeasy.a.03
p63
I1
sVfail.v.07
p64
I1
sVwish.v.01
p65
I1
sVwish.v.02
p66
I5
sVfail.v.04
p67
I1
sVhappy.a.01
p68
I1
sVsit_down.v.01
p69
I2
sVuse.v.04
p70
I5
sVwrinkle.n.01
p71
I1
sVbecome.v.04
p72
I1
sVrecently.r.01
p73
I1
sVpractice.n.05
p74
I1
sVhitler.n.01
p75
I1
sVbeat.v.11
p76
I1
sVsocial.a.03
p77
I3
sVfrontal_bone.n.01
p78
I1
sVcipher.n.04
p79
I1
sVinternet.n.01
p80
I1
sVplayer.n.01
p81
I1
sVactually.r.01
p82
I1
sVconstantly.r.02
p83
I4
sVfantasy.v.01
p84
I1
sVoriginal.a.03
p85
I1
sVfeed.v.06
p86
I3
sVwrite.v.08
p87
I2
sVcheat_on.v.01
p88
I1
sVemotional.a.03
p89
I1
sVethic.n.02
p90
I1
sVnightmare.n.02
p91
I1
sVfood.n.03
p92
I4
sVprevent.v.02
p93
I1
sVone.n.02
p94
I1
sVsituation.n.01
p95
I1
sVmodel.n.07
p96
I2
sVname.n.04
p97
I1
sVfunction.n.03
p98
I1
sVname.n.02
p99
I1
sVcatchphrase.n.01
p100
I1
sVold.a.02
p101
I1
sVmany.a.01
p102
I1
sVfast.a.03
p103
I1
sVmuch.r.05
p104
I1
sVevent.n.03
p105
I1
sVseventy-five.s.01
p106
I1
sVsex.n.03
p107
I1
sVopen.a.01
p108
I1
sVsuffer.v.02
p109
I3
sVsuffer.v.06
p110
I1
sVrule.v.04
p111
I1
sVany.s.01
p112
I1
sVzero.v.02
p113
I1
sVoccur.v.02
p114
I2
sVusher.v.01
p115
I2
sVconfident.a.01
p116
I1
sVmake.v.43
p117
I1
sVadult.n.02
p118
I2
sVtune.n.01
p119
I1
sVhat.v.02
p120
I2
sVway.n.11
p121
I4
sVpersonality.n.02
p122
I1
sVsurprise.v.02
p123
I1
sVuseless.a.01
p124
I1
sVseven.s.01
p125
I1
sVdrink_in.v.01
p126
I1
sVinduce.v.02
p127
I3
sVwrench.n.01
p128
I1
sVvogue.n.01
p129
I1
sVvegan.n.01
p130
I1
sVnecessitate.v.01
p131
I1
sVregretful.a.01
p132
I4
sVteacher.n.02
p133
I1
sVlevel.n.07
p134
I1
sVtwo.s.01
p135
I1
sVget.v.29
p136
I1
sVinstantaneously.r.01
p137
I1
sVmust.s.01
p138
I1
sVabout.r.07
p139
I3
sVinappropriate.a.01
p140
I1
sVshower.n.06
p141
I1
sVinformation.n.05
p142
I1
sVex-wife.n.01
p143
I1
sVwitness.v.02
p144
I4
sVpublic_toilet.n.01
p145
I1
sVlet_go_of.v.01
p146
I1
sVscript.n.01
p147
I1
sVworldly_concern.n.01
p148
I3
sVlike.v.04
p149
I1
sVstripe.n.05
p150
I1
sVlife.n.03
p151
I1
sVlife.n.02
p152
I1
sVlife.n.07
p153
I1
sVtruthful.a.01
p154
I2
sVdefense.n.11
p155
I1
sVlittle.a.02
p156
I1
sVtourist.n.01
p157
I1
sVuseful.a.01
p158
I1
sVteach.v.01
p159
I2
sVknow.v.05
p160
I2
sVknow.v.01
p161
I1
sVnice.a.01
p162
I1
sVmutely.r.01
p163
I1
sVwhoremaster.n.01
p164
I1
sVtoss_off.v.02
p165
I2
sVrange.n.04
p166
I1
sVgive.v.38
p167
I1
sVtaiwanese.a.01
p168
I1
sVtelevision_receiver.n.01
p169
I1
sVlarge.a.01
p170
I4
sVfirst.a.06
p171
I3
sVamerican.a.02
p172
I1
sVfight.n.05
p173
I1
sVhair.n.01
p174
I1
sVmeal.n.03
p175
I1
sVlisten.v.02
p176
I2
sVtwenty.s.01
p177
I2
sVwedding.n.03
p178
I1
sVpanic.v.02
p179
I1
sVunintelligent.a.01
p180
I1
sVthing.n.05
p181
I1
sValbum.n.02
p182
I1
sVworker.n.03
p183
I1
sVsidereal_day.n.01
p184
I1
sVtattoo.n.03
p185
I1
sVintrigue.v.01
p186
I1
sVeuphemism.n.01
p187
I1
sVdiscipline.v.01
p188
I1
sVhappen.v.04
p189
I1
sVyield.v.01
p190
I3
sVhappen.v.02
p191
I2
sVitch.v.04
p192
I1
sVkid.n.05
p193
I2
sVincorrectly.r.02
p194
I1
sVthink.v.01
p195
I1
sVsong.n.05
p196
I4
sVpipe_dream.n.01
p197
I1
sVthink.v.06
p198
I2
sVchoose.v.01
p199
I2
sVevaluate.v.02
p200
I1
sVwinner.n.02
p201
I1
sVright.r.07
p202
I1
sVwomanhood.n.02
p203
I1
sVsubstantial.a.03
p204
I3
sVhire.v.01
p205
I1
sVquotation_mark.n.01
p206
I1
sVgood.a.03
p207
I4
sVtaboo.n.02
p208
I1
sVwatch.v.03
p209
I1
sVbest.a.01
p210
I5
sVsuppose.v.01
p211
I1
sVstory.n.02
p212
I2
sVopportunity.n.01
p213
I1
sVfame.n.01
p214
I1
sVoccupation.n.01
p215
I1
sVforemost.r.01
p216
I2
sVlottery.n.02
p217
I1
sVhistory.n.05
p218
I2
sVvery.r.01
p219
I5
sVnext.r.01
p220
I1
sVpeople.n.03
p221
I13
sVago.r.01
p222
I3
sVrifle.v.02
p223
I3
sVnormally.r.01
p224
I1
sVend.v.04
p225
I1
sVbad.a.01
p226
I1
sVirrationally.r.01
p227
I1
sVsubstitute.v.02
p228
I1
sVsuccessfully.r.01
p229
I1
sVshanghai.v.01
p230
I1
sVpassenger.n.01
p231
I1
sVmanipulate.v.05
p232
I1
sVclothing.n.01
p233
I1
sVgenic.a.01
p234
I1
sVtitle.n.02
p235
I1
sVdoorway.n.01
p236
I1
sVgrateful.a.01
p237
I1
sVweight-lift.v.01
p238
I1
sVtheme.n.03
p239
I1
sVsin.n.06
p240
I1
sVhundred_thousand.n.01
p241
I1
sVkind.n.01
p242
I2
sVtopic.n.02
p243
I3
sVsupplant.v.01
p244
I1
sVmatchless.s.01
p245
I1
sVacquire.v.05
p246
I1
sVforget.v.04
p247
I1
sVobvious.a.01
p248
I1
sVspecific.a.01
p249
I1
sVstrait.n.01
p250
I1
sVexperience.n.03
p251
I1
sVone.s.01
p252
I1
sVoption.n.02
p253
I1
sVone.s.06
p254
I9
sVcreative.a.01
p255
I1
sVfear.n.03
p256
I1
sVcall.v.27
p257
I2
sVcanada.n.01
p258
I1
sVforum.n.02
p259
I1
sVballad.n.02
p260
I1
sVstudy.v.05
p261
I1
sVreceive.v.02
p262
I4
sVminiskirt.n.01
p263
I1
sVvise.n.01
p264
I1
sVdifferent.a.01
p265
I1
sVharmonize.v.01
p266
I1
sVfictional.a.01
p267
I2
sVbible.n.02
p268
I1
sVmachine_politician.n.01
p269
I1
sVbear.v.06
p270
I2
sVnormal.a.03
p271
I2
sVinteresting.a.01
p272
I3
sVdue.a.03
p273
I1
sVsexual_love.n.02
p274
I1
sVspirit.n.02
p275
I1
sVtug.v.02
p276
I1
sVinterested.a.01
p277
I2
sVfrisson.n.01
p278
I1
sVbullshit.n.01
p279
I1
sVexamination.n.02
p280
I1
sVgame.n.11
p281
I2
sVepic.a.02
p282
I1
sVa_lot.r.01
p283
I1
sVtruly.r.01
p284
I1
sVrelationship.n.01
p285
I2
sVmemorize.v.01
p286
I2
sVtake.v.08
p287
I2
sVwant.v.05
p288
I4
sVwonder.n.02
p289
I1
sVshow.n.03
p290
I2
sVrepugnance.n.01
p291
I1
sVnational.a.07
p292
I1
sVcatch.v.07
p293
I1
sVlogic.n.04
p294
I1
sVfire_warden.n.01
p295
I1
sVconsequence.n.02
p296
I1
sVsuck.v.04
p297
I1
sVorder.n.01
p298
I1
sVtoken.n.01
p299
I2
sVstuff.n.07
p300
I1
sVdifficulty.n.03
p301
I1
sVproblem.n.01
p302
I4
sVkidnap.v.01
p303
I1
sVlast.a.02
p304
I1
sVwatch.n.01
p305
I1
sVmeaning.n.02
p306
I1
sVpoliteness.n.02
p307
I1
sVcivilization.n.01
p308
I1
sVbiography.n.01
p309
I5
sVhate.v.01
p310
I2
sVfeel.v.05
p311
I1
sVrather.r.01
p312
I1
sVschool.n.06
p313
I1
sVmarried.a.01
p314
I1
sVtalk.v.02
p315
I1
sVactually.r.02
p316
I2
sVshot.n.09
p317
I1
sVparking_lot.n.01
p318
I1
sVstate.n.04
p319
I1
sVactually.r.04
p320
I3
sVcharacter.n.07
p321
I3
sVcharacter.n.04
p322
I2
sVthink.v.10
p323
I2
sVread.n.01
p324
I1
sVswindle.n.01
p325
I2
sVquote.v.04
p326
I1
sVtrain.v.02
p327
I1
sVtrain.v.01
p328
I1
sVgain.v.08
p329
I2
sVlike.n.02
p330
I1
sVgain.v.05
p331
I1
sVprobably.r.01
p332
I1
sVhope.v.03
p333
I1
sVpursue.v.02
p334
I1
sVtear.v.05
p335
I1
sVperfectly.r.02
p336
I1
sVillusion.n.02
p337
I1
sVwestern.a.02
p338
I1
sVthing.n.09
p339
I1
sVchildhood.n.01
p340
I1
sVthing.n.07
p341
I1
sVpotter.n.01
p342
I1
sVdeath.n.08
p343
I1
sVsleep_together.v.01
p344
I4
sVswallow.n.02
p345
I1
sVforward.r.01
p346
I1
sVunited_states_army.n.01
p347
I2
sVspill_the_beans.v.01
p348
I1
sVexplain.v.02
p349
I1
sVwork.v.02
p350
I1
sVturn.n.09
p351
I1
sVrun_into.v.01
p352
I1
sVpolice.n.01
p353
I1
sVdump.v.03
p354
I1
sVpet.n.03
p355
I2
sVscam.n.01
p356
I1
sVunoriginality.n.02
p357
I1
sVmind.n.01
p358
I1
sVprove.v.02
p359
I1
sVwear.v.09
p360
I1
sVreason.n.06
p361
I2
sVmake.v.03
p362
I1
sVwear.v.02
p363
I2
sVtouch.n.10
p364
I3
sVwhile.n.01
p365
I1
sVright_field.n.01
p366
I1
sVparent.n.02
p367
I3
sVabsolutely.r.02
p368
I1
sVsentence.n.01
p369
I1
sVdouble.n.03
p370
I1
sVmoney.n.03
p371
I1
sVexperience.n.01
p372
I1
sVcontest.n.02
p373
I2
sVask.v.05
p374
I2
sVworkplace.n.01
p375
I1
sVimmediately.r.03
p376
I1
sVscene.n.08
p377
I1
sVwholly.r.01
p378
I3
sVword.n.07
p379
I2
sVrandom.a.01
p380
I1
sVself.a.01
p381
I1
sVmovie.n.01
p382
I9
sVname.v.05
p383
I1
sVboron.n.01
p384
I1
sVunplayful.a.01
p385
I1
sVname.v.01
p386
I1
sVstrange.a.01
p387
I5
sVgross.a.01
p388
I1
sVchild.n.04
p389
I6
sVchild.n.02
p390
I1
sVwarn.v.02
p391
I1
sVhit.n.07
p392
I1
sVplot.n.04
p393
I1
sVlose.v.05
p394
I1
sVfact.n.04
p395
I2
sVstill.r.04
p396
I1
sVfuck.n.01
p397
I3
sVsurvive.v.01
p398
I2
sVtaboo.v.01
p399
I1
sVvisualize.v.01
p400
I4
sVreal.a.01
p401
I1
sVfive.s.01
p402
I1
sVrest.n.07
p403
I1
sVself.n.02
p404
I1
sVrelease.n.08
p405
I1
sVunlike.a.01
p406
I3
sVcourse.n.01
p407
I2
sVever.r.03
p408
I5
sVever.r.01
p409
I1
sVfun.n.02
p410
I1
sVincident.n.02
p411
I1
sVtraverse.v.01
p412
I1
sVset.n.05
p413
I2
sVtoy.v.02
p414
I2
sVmurderer.n.01
p415
I1
sVfeel.v.13
p416
I1
sVwell.r.01
p417
I1
sVdeep.a.03
p418
I1
sVlife.n.01
p419
I1
sVjoke.n.04
p420
I1
sVnickname.n.02
p421
I1
sVmoment.n.06
p422
I2
sVsexual_activity.n.01
p423
I7
sVphone_number.n.01
p424
I1
sVminor.a.07
p425
I1
sVcustoms.n.01
p426
I1
sVyear.n.03
p427
I4
sVdate.n.04
p428
I1
sVvideo_recording.n.01
p429
I4
sVsketch.n.03
p430
I1
sVfootage.n.02
p431
I1
sVmonday.n.01
p432
I1
sVscat.v.01
p433
I1
sVcool.a.04
p434
I3
sVstate.v.01
p435
I1
sVwork_force.n.01
p436
I2
sVdysprosium.n.01
p437
I1
sVattempt.n.01
p438
I1
sVowner.n.02
p439
I1
sVtrade_name.n.01
p440
I1
sVrender.v.04
p441
I1
sVlook.v.07
p442
I1
sVplot.n.01
p443
I2
sVpull.v.17
p444
I1
sVterabyte.n.02
p445
I1
sVwatchman.n.01
p446
I1
sVquestion.n.06
p447
I2
sVsyndicate.n.01
p448
I1
sVunderstand.v.04
p449
I1
sVunderstand.v.03
p450
I1
sVmistake.n.02
p451
I1
sVworld_power.n.01
p452
I2
sVpolish.n.02
p453
I1
sVperson.n.01
p454
I8
sVcurrent.a.01
p455
I2
sVpreviously.r.01
p456
I1
sVanother.s.01
p457
I1
sVsubject.n.06
p458
I1
sVstartle.v.02
p459
I1
sVanimal.n.01
p460
I2
sVpopulation.n.05
p461
I1
sVshudder.v.02
p462
I1
sVpeace.n.05
p463
I1
sVpin.n.08
p464
I2
sVkick_back.v.02
p465
I1
sVhealth.n.02
p466
I1
sa(dp467
S'Canada'
p468
I1
sS'childs'
p469
I1
sS'chain'
p470
I1
sS'caused'
p471
I1
sS'EVERYONE'
p472
I1
sS'go'
p473
I1
sS'hate'
p474
I2
sS'children'
p475
I1
sS'superpower'
p476
I2
sS'seemed'
p477
I1
sS'animal'
p478
I1
sS"'Lawyers"
p479
I1
sS'disgusting'
p480
I1
sS'permanently'
p481
I1
sS'Western'
p482
I1
sS'sorry'
p483
I1
sS'must'
p484
I1
sS"'Women"
p485
I1
sS'sound'
p486
I2
sS'song'
p487
I5
sS'horror'
p488
I1
sS'hilarious'
p489
I2
sS'choice'
p490
I1
sS'every'
p491
I3
sS'decide'
p492
I1
sS'animals'
p493
I1
sS'little'
p494
I1
sS'ticker'
p495
I1
sS'cool'
p496
I2
sS'entire'
p497
I1
sS'school'
p498
I1
sS'immediately'
p499
I1
sS'level'
p500
I1
sS'tear'
p501
I1
sS'die'
p502
I1
sS'loneliness'
p503
I1
sS'try'
p504
I1
sS'item'
p505
I2
sS'convenience'
p506
I1
sS'irrationally'
p507
I1
sS'round'
p508
I1
sS'enjoy'
p509
I1
sS'prevent'
p510
I1
sS'neighborhood'
p511
I1
sS'trend'
p512
I1
sS'MOVIE'
p513
I1
sS'zero'
p514
I1
sS'video'
p515
I3
sS'established'
p516
I1
sS'educate'
p517
I1
sS'defence'
p518
I1
sS'witnessed'
p519
I2
sS"'You"
p520
I1
sS'current'
p521
I2
sS'waiting'
p522
I1
sS'relocate'
p523
I1
sS'learned'
p524
I1
sS'ever'
p525
I6
sS'told'
p526
I1
sS'creepiest'
p527
I1
sS'kicked'
p528
I1
sS'men'
p529
I2
sS'understanding'
p530
I1
sS'tracks'
p531
I1
sS'others'
p532
I1
sS'aftermath'
p533
I1
sS'kidnapped'
p534
I1
sS'non-sexual'
p535
I1
sS'great'
p536
I2
sS'watchers'
p537
I1
sS'Chinese'
p538
I1
sS'30'
p539
I1
sS'reason'
p540
I2
sS'experience'
p541
I2
sS'social'
p542
I3
sS'NOT'
p543
I2
sS'opinion'
p544
I1
sS'weird'
p545
I2
sS'makes'
p546
I5
sS'punishment'
p547
I1
sS'thats'
p548
I2
sS'love'
p549
I1
sS'family'
p550
I1
sS'win'
p551
I2
sS'crazy'
p552
I2
sS'replace'
p553
I1
sS'batshit'
p554
I1
sS'Mondays'
p555
I1
sS'dumbest'
p556
I1
sS'scam'
p557
I1
sS'total'
p558
I1
sS'Europe'
p559
I1
sS'plot'
p560
I1
sS'use'
p561
I3
sS'cheating'
p562
I1
sS'lottery'
p563
I1
sS'takes'
p564
I1
sS'would'
p565
I17
sS'angry'
p566
I1
sS'two'
p567
I1
sS'sports'
p568
I1
sS'live'
p569
I3
sS'call'
p570
I1
sS'minor'
p571
I1
sS'knows'
p572
I1
sS"'Reddditors"
p573
I1
sS'becomes'
p574
I1
sS'impress'
p575
I1
sS'hurt'
p576
I1
sS"'Reddit"
p577
I4
sS'SHITTY'
p578
I1
sS'American'
p579
I1
sS'adult'
p580
I1
sS'sit'
p581
I1
sS'glad'
p582
I1
sS'women'
p583
I1
sS'word'
p584
I1
sS'catchphrase'
p585
I1
sS'work'
p586
I1
sS'Go-To'
p587
I1
sS'movies'
p588
I1
sS'obvious'
p589
I1
sS'learn'
p590
I2
sS'believed'
p591
I1
sS'example'
p592
I2
sS'Hitler'
p593
I1
sS'history'
p594
I2
sS'vodka'
p595
I1
sS'embarrassing'
p596
I2
sS'give'
p597
I2
sS'fuck'
p598
I1
sS'accept'
p599
I1
sS'heard'
p600
I1
sS'something'
p601
I8
sS'want'
p602
I4
sS'clothing'
p603
I1
sS'huge'
p604
I1
sS'end'
p605
I1
sS'lousy'
p606
I1
sS'country'
p607
I1
sS'sitting'
p608
I1
sS'1'
p609
I1
sS"'TV"
p610
I1
sS'instead'
p611
I1
sS'explains'
p612
I1
sS'opportunity'
p613
I1
sS'Ex'
p614
I1
sS'product'
p615
I1
sS'shouldnt'
p616
I2
sS'okay'
p617
I1
sS'irrational'
p618
I1
sS'information'
p619
I1
sS'advice'
p620
I3
sS'customs'
p621
I1
sS'lay'
p622
I1
sS'date'
p623
I1
sS'ethics'
p624
I1
sS'devolve'
p625
I1
sS'subreddits'
p626
I1
sS'appreciate'
p627
I1
sS'fictional'
p628
I2
sS'childhood'
p629
I1
sS"'what"
p630
I1
sS'funniest'
p631
I3
sS'worst'
p632
I4
sS"'Gamers"
p633
I1
sS'dream'
p634
I1
sS'playing'
p635
I2
sS'talk'
p636
I1
sS'What'
p637
I8
sS'years'
p638
I3
sS'isnt'
p639
I2
sS'lyric'
p640
I1
sS'hell'
p641
I1
sS'still'
p642
I1
sS'creepy'
p643
I1
sS'police'
p644
I1
sS'taboos'
p645
I1
sS'interesting'
p646
I3
sS'actually'
p647
I6
sS'better'
p648
I1
sS'choose'
p649
I2
sS'easier'
p650
I1
sS'happened'
p651
I2
sS'good'
p652
I4
sS'tourist'
p653
I1
sS'food'
p654
I4
sS'practice'
p655
I1
sS'scene'
p656
I2
sS'band'
p657
I2
sS"'Redditors"
p658
I4
sS'worlds'
p659
I1
sS'name'
p660
I4
sS'always'
p661
I3
sS'Potter'
p662
I1
sS"'All"
p663
I1
sS'found'
p664
I5
sS"'How"
p665
I3
sS'button'
p666
I1
sS'everyone'
p667
I4
sS'idea'
p668
I1
sS"'Recruiters/employers"
p669
I1
sS'Which'
p670
I1
sS'year'
p671
I1
sS'event'
p672
I1
sS'really'
p673
I5
sS'album'
p674
I1
sS"'"
p675
I170
sS'announces'
p676
I1
sS'since'
p677
I2
sS"'elementary"
p678
I1
sS'participants'
p679
I1
sS'health'
p680
I1
sS"'Delivery"
p681
I1
sS'7'
p682
I1
sS'internet'
p683
I2
sS'got'
p684
I2
sS'cause'
p685
I1
sS'red'
p686
I2
sS'working'
p687
I1
sS'story'
p688
I2
sS'difficulty'
p689
I1
sS'completely'
p690
I2
sS'100000'
p691
I1
sS'ask'
p692
I2
sS'wanted'
p693
I1
sS'beginning'
p694
I1
sS'owners'
p695
I1
sS'ate'
p696
I1
sS'prepare'
p697
I1
sS'miss'
p698
I1
sS'e.g'
p699
I1
sS'could'
p700
I8
sS'days'
p701
I1
sS'times'
p702
I1
sS'thing'
p703
I19
sS'celebrity'
p704
I1
sS'resumes'
p705
I1
sS'100000000'
p706
I1
sS'chills'
p707
I1
sS'onto'
p708
I2
sS'think'
p709
I4
sS'first'
p710
I5
sS'euphemism'
p711
I1
sS'dont'
p712
I1
sS'feel'
p713
I2
sS'number'
p714
I1
sS'one'
p715
I11
sS'fantasy'
p716
I1
sS'done'
p717
I2
sS'another'
p718
I1
sS'says'
p719
I1
sS'sounds'
p720
I2
sS'open'
p721
I1
sS'suck'
p722
I1
sS'given'
p723
I2
sS'checked'
p724
I1
sS'nickname'
p725
I1
sS'caught'
p726
I1
sS'arsehole'
p727
I1
sS'shiver'
p728
I1
sS'perfectly'
p729
I1
sS'national'
p730
I1
sS'gives'
p731
I2
sS'craziest'
p732
I1
sS'relationship'
p733
I2
sS'nobody'
p734
I1
sS'park'
p735
I1
sS'released'
p736
I1
sS'part'
p737
I2
sS'seat'
p738
I1
sS'population'
p739
I1
sS'kind'
p740
I2
sS'bored'
p741
I1
sS'underpriced'
p742
I1
sS'outrageous'
p743
I1
sS'matter'
p744
I1
sS'historical'
p745
I1
sS'feeling'
p746
I3
sS'mini'
p747
I1
sS'wasnt'
p748
I1
sS'mind'
p749
I1
sS'sad'
p750
I1
sS'say'
p751
I2
sS'seen'
p752
I4
sS'saw'
p753
I1
sS'studying'
p754
I1
sS'self'
p755
I2
sS'take'
p756
I2
sS'doors'
p757
I1
sS'flags'
p758
I2
sS'wonder'
p759
I1
sS'experienced'
p760
I1
sS'normal'
p761
I2
sS'quote'
p762
I1
sS'men/women'
p763
I1
sS'75'
p764
I1
sS'eaten'
p765
I1
sS'vise'
p766
I1
sS'panic'
p767
I1
sS'class'
p768
I2
sS'RIGHT'
p769
I1
sS'pulled'
p770
I1
sS'Fuck'
p771
I1
sS'order'
p772
I1
sS'fact'
p773
I1
sS'saying'
p774
I1
sS'bomb'
p775
I1
sS'show'
p776
I4
sS'cheat'
p777
I2
sS'random'
p778
I1
sS"'Relatives"
p779
I1
sS'hack'
p780
I1
sS'fear'
p781
I1
sS'find'
p782
I2
sS'crush'
p783
I1
sS'Reddit'
p784
I12
sS'title'
p785
I1
sS'paranoid'
p786
I1
sS'('
p787
I4
sS'ruin'
p788
I1
sS'winner'
p789
I1
sS'incident'
p790
I1
sS'going'
p791
I1
sS'pretty'
p792
I1
sS'hope'
p793
I1
sS'personality'
p794
I1
sS'hit'
p795
I1
sS'pets'
p796
I1
sS'get'
p797
I6
sS'beat'
p798
I1
sS'goosebumps'
p799
I1
sS'television'
p800
I1
sS'famous'
p801
I1
sS'words'
p802
I1
sS'wedding'
p803
I1
sS'daydream/fantasize'
p804
I1
sS'bar'
p805
I1
sS"'Park"
p806
I1
sS'quotes'
p807
I1
sS'Fucking'
p808
I1
sS'married'
p809
I1
sS'interesting/creepiest'
p810
I1
sS'twice'
p811
I1
sS'bad'
p812
I1
sS'stuff'
p813
I1
sS'shots'
p814
I1
sS'inside'
p815
I1
sS'silently'
p816
I1
sS"'Canadians"
p817
I1
sS'farthest'
p818
I1
sS'physically'
p819
I2
sS"'Whats"
p820
I22
sS'BS'
p821
I1
sS'sex'
p822
I8
sS"'What"
p823
I88
sS'culture'
p824
I1
sS'see'
p825
I1
sS'horrendous'
p826
I1
sS'fail'
p827
I1
sS'best'
p828
I5
sS'subject'
p829
I2
sS'shower'
p830
I1
sS'said'
p831
I1
sS'inappropriate'
p832
I1
sS'ways'
p833
I2
sS'movie'
p834
I5
sS"'Girls"
p835
I1
sS'probably'
p836
I1
sS'fascinates'
p837
I1
sS'reddit'
p838
I4
sS'Bible'
p839
I1
sS'jobs'
p840
I1
sS'exam'
p841
I1
sS'supermarket'
p842
I1
sS'nightmares'
p843
I1
sS'job'
p844
I4
sS'wear'
p845
I1
sS'politeness'
p846
I1
sS'20'
p847
I2
sS'come'
p848
I1
sS'last'
p849
I1
sS'memorized'
p850
I1
sS'joke'
p851
I1
sS'stupidest'
p852
I1
sS'according'
p853
I1
sS'games'
p854
I1
sS'receives'
p855
I1
sS'forgotten'
p856
I1
sS'asked'
p857
I1
sS'comes'
p858
I1
sS"'The"
p859
I1
sS'gone'
p860
I1
sS'seems'
p861
I1
sS'whatever'
p862
I1
sS"'Pilots"
p863
I1
sS'logic'
p864
I1
sS'late'
p865
I1
sS'videos'
p866
I1
sS'mind-blowing'
p867
I1
sS'due'
p868
I1
sS'tiny'
p869
I1
sS'confident'
p870
I1
sS'genetic'
p871
I1
sS'unspoken'
p872
I1
sS'change'
p873
I1
sS'bullshit'
p874
I2
sS'life'
p875
I9
sS'controlled'
p876
I1
sS'gay'
p877
I1
sS'fucked-up'
p878
I1
sS"'Hows"
p879
I1
sS'post/comment'
p880
I1
sS'traumatizing'
p881
I1
sS'child'
p882
I5
sS'case'
p883
I1
sS'look'
p884
I1
sS'B.S'
p885
I1
sS'air'
p886
I1
sS'strangest'
p887
I4
sS'cast'
p888
I1
sS'hates'
p889
I1
sS'many'
p890
I1
sS'situation'
p891
I1
sS"'Movie-watchers"
p892
I1
sS'instantly'
p893
I1
sS'frustrating'
p894
I1
sS'coolest'
p895
I1
sS'mistake'
p896
I1
sS'changed'
p897
I1
sS'played'
p898
I1
sS'almost'
p899
I3
sS'twists'
p900
I1
sS"'Men"
p901
I1
sS'encountered'
p902
I1
sS'ever-so-slightly'
p903
I1
sS'someone'
p904
I8
sS'commonly'
p905
I1
sS'You'
p906
I2
sS'blab'
p907
I1
sS'everyday'
p908
I1
sS'tattoo'
p909
I1
sS'different'
p910
I4
sS')'
p911
I4
sS'things'
p912
I2
sS'make'
p913
I3
sS'forehead'
p914
I1
sS'strange'
p915
I1
sS'incorrectly'
p916
I1
sS'fantasized'
p917
I1
sS'gets'
p918
I1
sS"'Teachers"
p919
I1
sS'discourages'
p920
I1
sS'used'
p921
I1
sS'itch'
p922
I1
sS'I'
p923
I1
sS'drink'
p924
I1
sS'drives'
p925
I1
sS'child-free'
p926
I1
sS'moment'
p927
I2
sS'never'
p928
I5
sS'Youve'
p929
I1
sS'fucked'
p930
I2
sS'totally'
p931
I1
sS'kid'
p932
I2
sS'Adults'
p933
I1
sS'older'
p934
I1
sS'youre'
p935
I3
sS'anybody'
p936
I1
sS'without'
p937
I1
sS'Im'
p938
I1
sS'greatest'
p939
I1
sS'In'
p940
I1
sS'genuinely'
p941
I1
sS'wake'
p942
I1
sS'If'
p943
I1
sS'forum'
p944
I1
sS'sentence'
p945
I1
sS'money'
p946
I1
sS'rest'
p947
I1
sS"'Which"
p948
I4
sS'judge'
p949
I1
sS'kill'
p950
I1
sS'world'
p951
I2
sS'facts'
p952
I1
sS'useful'
p953
I1
sS'death'
p954
I1
sS'veganism'
p955
I1
sS'$'
p956
I2
sS'hated'
p957
I1
sS'workers'
p958
I1
sS'drunk'
p959
I1
sS'character'
p960
I3
sS'killed'
p961
I1
sS'rangers'
p962
I1
sS'interested'
p963
I2
sS'parents'
p964
I3
sS'versa'
p965
I1
sS'role'
p966
I1
sS'save'
p967
I2
sS'surprised'
p968
I1
sS'useless'
p969
I1
sS'real'
p970
I4
sS'...'
p971
I1
sS'read'
p972
I2
sS'shitty'
p973
I1
sS'game'
p974
I3
sS'five'
p975
I1
sS'know'
p976
I2
sS'press'
p977
I1
sS'using'
p978
I1
sS'bit'
p979
I2
sS'accepted'
p980
I1
sS'CrossFit'
p981
I1
sS'England'
p982
I1
sS'like'
p983
I5
sS'lost'
p984
I1
sS'TB'
p985
I1
sS"'Pet"
p986
I1
sS'specific'
p987
I1
sS'lose'
p988
I1
sS"'Do"
p989
I1
sS'right'
p990
I1
sS'people'
p991
I13
sS'absolutely'
p992
I1
sS'footage'
p993
I1
sS'successfully'
p994
I1
sS'Excel'
p995
I1
sS'hair'
p996
I1
sS"'If"
p997
I6
sS'escape'
p998
I1
sS'civilisation'
p999
I1
sS'happens'
p1000
I1
sS'gross'
p1001
I1
sS'pet'
p1002
I1
sS'memories'
p1003
I1
sS'avoid'
p1004
I1
sS"'AskReddit"
p1005
I1
sS'creative'
p1006
I1
sS"'Young"
p1007
I1
sS'lifehacks'
p1008
I1
sS'epic'
p1009
I1
sS'q-tip'
p1010
I1
sS'teachers'
p1011
I1
sS'seconds'
p1012
I2
sS'memorable'
p1013
I1
sS'taboo'
p1014
I1
sS"'Apart"
p1015
I1
sS'wouldnt'
p1016
I1
sS'getting'
p1017
I1
sS'favorite'
p1018
I3
sS"'Sewer"
p1019
I1
sS'US'
p1020
I1
sS'meal'
p1021
I1
sS'stand'
p1022
I1
sS'youve'
p1023
I12
sS'mixed'
p1024
I1
sS'whats'
p1025
I3
sS'subs'
p1026
I1
sS'followed'
p1027
I1
sS'previously'
p1028
I1
sS'image'
p1029
I1
sS'within'
p1030
I1
sS'pick-up'
p1031
I1
sS"'Besides"
p1032
I2
sS'thankful'
p1033
I1
sS'doesnt'
p1034
I1
sS"'Parents"
p1035
I3
sS'next'
p1036
I2
sS'murderers'
p1037
I1
sS'unoriginality'
p1038
I1
sS'..'
p1039
I1
sS'constantly'
p1040
I1
sS'question'
p1041
I2
sS"'People"
p1042
I2
sS'fast'
p1043
I1
sS'fight'
p1044
I1
sS'much'
p1045
I2
sS'way'
p1046
I2
sS'biggest'
p1047
I4
sS':'
p1048
I5
sS'Hows'
p1049
I1
sS'sequel'
p1050
I2
sS'forward'
p1051
I1
sS'hear'
p1052
I1
sS'Harry'
p1053
I1
sS'line'
p1054
I1
sS'true'
p1055
I2
sS'eat'
p1056
I1
sS'hire'
p1057
I1
sS'made'
p1058
I1
sS'born'
p1059
I1
sS'wish'
p1060
I3
sS'whove'
p1061
I2
sS'nicest'
p1062
I1
sS'today'
p1063
I1
sS'emotional'
p1064
I1
sS'piece'
p1065
I1
sS'called'
p1066
I1
sS'passenger'
p1067
I1
sS'USA'
p1068
I2
sS'classic'
p1069
I1
sS'deep'
p1070
I1
sS'film'
p1071
I2
sS'dying'
p1072
I1
sS'contest'
p1073
I2
sS'peace'
p1074
I1
sS'actor'
p1075
I1
sS'book'
p1076
I1
sS'actors'
p1077
I1
sS'smell'
p1078
I1
sS'realize'
p1079
I2
sS"'Announcing"
p1080
I1
sS'favourite'
p1081
I1
sS'dies'
p1082
I1
sS'weirdest'
p1083
I3
sS'meaning'
p1084
I1
sS'serious'
p1085
I1
sS'brands'
p1086
I1
sS'ago'
p1087
I3
sS'happier'
p1088
I1
sS'tricks'
p1089
I1
sS'2000'
p1090
I1
sS'time'
p1091
I4
sS'understand'
p1092
I2
sS'underrated'
p1093
I1
sS'misheard'
p1094
I1
sS'starting'
p1095
I1
sS'original'
p1096
I1
saI1292
a.