(lp0
(dp1
Vwork.v.02
p2
I1
sVlyric.a.04
p3
I1
sVnormal.a.03
p4
I1
sVmake.v.43
p5
I2
sVlittle.a.02
p6
I1
sVsequel.n.02
p7
I1
sVthing.n.12
p8
I8
sVnebraska.n.01
p9
I1
sVway.n.12
p10
I1
sVwatchman.n.01
p11
I1
sVsin.n.06
p12
I1
sVway.n.11
p13
I2
sVrelationship.n.01
p14
I1
sVnever.r.02
p15
I3
sVkeep_off.v.01
p16
I1
sVunoriginality.n.02
p17
I1
sVruin.n.04
p18
I1
sVhome_plate.n.01
p19
I1
sVtaiwanese.a.01
p20
I1
sVinternet.n.01
p21
I1
sVtopic.n.02
p22
I2
sVinduce.v.02
p23
I1
sVunderstand.v.04
p24
I1
sVmatchless.s.01
p25
I1
sVforget.v.04
p26
I1
sVstrange.a.01
p27
I1
sVtrain.v.01
p28
I1
sVanimal.n.01
p29
I2
sVproduct.n.05
p30
I1
sVgain.v.08
p31
I1
sVpunish.v.01
p32
I1
sVreason.n.06
p33
I1
sVregretful.a.01
p34
I3
sVtwenty.s.01
p35
I1
sVperson.n.03
p36
I1
sVtwo.s.01
p37
I1
sVpurpose.n.01
p38
I1
sVvideo.n.01
p39
I1
sVwestern.a.02
p40
I1
sVinstantaneously.r.01
p41
I1
sVrepeat.v.05
p42
I1
sVtouch.n.10
p43
I2
sVvariety.n.06
p44
I1
sVdifficulty.n.03
p45
I1
sVright_field.n.01
p46
I1
sVcatchphrase.n.01
p47
I1
sVone.s.01
p48
I2
sVparent.n.02
p49
I2
sVday.n.07
p50
I1
sVone.s.06
p51
I6
sVscript.n.01
p52
I1
sVinformation.n.05
p53
I1
sVex-wife.n.01
p54
I1
sVwitness.v.02
p55
I1
sVcast.v.03
p56
I1
sVweight-lift.v.01
p57
I1
sVunderstand.v.03
p58
I1
sVrandom.a.01
p59
I1
sVask.v.04
p60
I1
sVunwrap.v.02
p61
I1
sVexplanation.n.03
p62
I1
sVrandomly.r.01
p63
I1
sVgrandchild.n.01
p64
I1
sVworkplace.n.01
p65
I1
sVfear.n.03
p66
I1
sVgoogle.v.01
p67
I1
sVenjoy.v.04
p68
I1
sVcall.v.27
p69
I3
sVworldly_concern.n.01
p70
I5
sVword.n.07
p71
I3
sVwait.v.04
p72
I1
sVpaper.n.05
p73
I1
sVdesire.v.01
p74
I1
sVstudy.v.05
p75
I1
sVmovie.n.01
p76
I1
sVlike.v.04
p77
I1
sVlife.n.05
p78
I1
sVlife.n.07
p79
I1
sVtoast.v.02
p80
I1
sVchild.n.04
p81
I2
sVrule.v.04
p82
I1
sVemployee.n.01
p83
I1
sVpersonality.n.02
p84
I1
sVplot.n.01
p85
I2
sVharmonize.v.01
p86
I1
sVmeaning.n.02
p87
I1
sVversion.n.06
p88
I1
sVright.r.07
p89
I2
sVtake.v.27
p90
I2
sVlose.v.05
p91
I1
sVuseful.a.01
p92
I1
sVbible.n.02
p93
I1
sVfact.n.04
p94
I4
sVtwenty-five.s.01
p95
I1
sVfuck.n.01
p96
I3
sVshare.n.01
p97
I1
sVshow.n.03
p98
I1
sVteach.v.01
p99
I1
sVwhoremaster.n.01
p100
I1
sVvisualize.v.01
p101
I2
sVagreement.n.01
p102
I1
sVconstantly.r.02
p103
I2
sVrule.n.06
p104
I1
sVknow.v.01
p105
I1
sVplayer.n.05
p106
I1
sVtoy.v.02
p107
I2
sVnice.a.01
p108
I1
sVtrouble.n.01
p109
I1
sVscandal.n.02
p110
I1
sVget.v.01
p111
I1
sVmachine_politician.n.01
p112
I1
sVfifteen.s.01
p113
I1
sVhealthy.a.01
p114
I1
sVmoney.n.03
p115
I1
sVcontemn.v.01
p116
I1
sVtoss_off.v.02
p117
I1
sVever.r.03
p118
I4
sVinteresting.a.01
p119
I1
sVfeature.n.02
p120
I1
sVultimately.r.01
p121
I1
sVgive.v.38
p122
I1
sVthirty.s.01
p123
I2
sVrepresent.v.04
p124
I1
sVlearn.v.02
p125
I1
sVinterested.a.01
p126
I1
sVwrite.v.08
p127
I2
sVunlike.a.01
p128
I1
sVwall.v.01
p129
I1
sVfind_oneself.v.01
p130
I2
sVexamination.n.02
p131
I1
sVlarge.a.01
p132
I3
sVsay.v.09
p133
I1
sVlend.v.01
p134
I1
sVfirst.a.06
p135
I3
sVfight.n.05
p136
I1
sVsecond.n.01
p137
I1
sVseem.v.04
p138
I1
sVmeal.n.03
p139
I1
sVcrazy.n.01
p140
I1
sVhire.v.01
p141
I1
sVtell.v.07
p142
I1
sVlisten.v.02
p143
I2
sVfun.n.02
p144
I1
sVfantasy.v.01
p145
I1
sVmake.v.03
p146
I1
sVconcept.n.01
p147
I1
sVmemorize.v.01
p148
I1
sVwedding.n.03
p149
I1
sVtraverse.v.01
p150
I1
sVcool.a.04
p151
I1
sVnibble.v.03
p152
I1
sVactor.n.02
p153
I1
sVgross.a.01
p154
I1
sVsurvive.v.01
p155
I2
sVhype.v.01
p156
I1
sVset.n.05
p157
I2
sVsidereal_day.n.01
p158
I1
sVmild.a.01
p159
I1
sVofficially.r.01
p160
I1
sVwholly.r.01
p161
I1
sVfail.v.04
p162
I1
sVnext.r.01
p163
I1
sVwell.r.01
p164
I1
sVrelease.n.08
p165
I1
sVirrational.a.01
p166
I1
sVtalk.v.02
p167
I1
sVtire.v.02
p168
I1
sVwish.v.01
p169
I1
sVwish.v.02
p170
I2
sVmoment.n.06
p171
I2
sVwork_force.n.01
p172
I2
sVphone_number.n.01
p173
I1
sVhappen.v.02
p174
I2
sVorder.n.01
p175
I1
sVsit_down.v.01
p176
I1
sVphase.n.04
p177
I1
sVuse.v.04
p178
I2
sVstigma.n.04
p179
I1
sVgrandparent.n.01
p180
I1
sVbecome.v.01
p181
I2
sVtoken.n.01
p182
I1
sVhometown.n.01
p183
I1
sVwrinkle.n.01
p184
I1
sVsketch.n.03
p185
I1
sVpornography.n.01
p186
I1
sVhappen.v.04
p187
I2
sVmonday.n.01
p188
I1
sVsong.n.05
p189
I2
sVunexpectedly.r.01
p190
I1
sVthink.v.06
p191
I4
sVcrick.n.01
p192
I1
sVhitler.n.01
p193
I1
sVtechnically.r.03
p194
I1
sVrealize.v.03
p195
I1
sVone.n.02
p196
I1
sVchoose.v.01
p197
I1
sVtrain_of_thought.n.01
p198
I1
sVtry_on.v.01
p199
I1
sVfrontal_bone.n.01
p200
I1
sVlast.a.02
p201
I1
sVwatch.n.01
p202
I1
sVsexual_activity.n.01
p203
I2
sVdie.v.05
p204
I1
sVcivilization.n.01
p205
I1
sVbiography.n.01
p206
I2
sVhappy.a.01
p207
I1
sVoriginal.a.03
p208
I1
sVhate.v.01
p209
I1
sVsubstantial.a.03
p210
I1
sVvery.r.01
p211
I2
sVfeed.v.06
p212
I2
sVold.a.02
p213
I1
sVgood.a.03
p214
I2
sVnewsworthiness.n.01
p215
I1
sVknow.v.05
p216
I1
sVlook.v.07
p217
I1
sVactually.r.01
p218
I1
sVlegal.a.04
p219
I1
sVactually.r.04
p220
I1
sVfalse.a.01
p221
I1
sVcharacter.n.07
p222
I2
sVsorrow.n.02
p223
I1
sVbest.a.01
p224
I6
sVthink.v.10
p225
I1
sVsuppose.v.01
p226
I1
sVstory.n.02
p227
I2
sVfood.n.03
p228
I3
sVprevent.v.02
p229
I1
sVterabyte.n.02
p230
I1
sVopportunity.n.01
p231
I1
sVunmarried.a.01
p232
I1
sVforty.s.01
p233
I1
sVoccupation.n.01
p234
I1
sVuseless.a.01
p235
I1
sVfive.s.01
p236
I2
sVvirus.n.02
p237
I1
sVfunction.n.03
p238
I1
sVitch.v.04
p239
I1
sVwyrd.n.01
p240
I2
sVgain.v.05
p241
I1
sVscore.n.05
p242
I1
sVcontest.n.02
p243
I1
sVlater.r.03
p244
I1
sVnegative.a.05
p245
I1
sVhistory.n.05
p246
I2
sVmistake.n.02
p247
I1
sVunattractive.a.01
p248
I1
sVfictional.a.01
p249
I2
sVmust.s.01
p250
I1
sVpolish.n.02
p251
I1
sVperfectly.r.02
p252
I1
sVyear.n.03
p253
I1
sVperson.n.01
p254
I2
sVold_age.n.01
p255
I3
sVcurrent.a.01
p256
I1
sVpeople.n.03
p257
I9
sVthing.n.05
p258
I1
sVago.r.01
p259
I1
sVthing.n.07
p260
I1
sVthrowaway.n.03
p261
I1
sVthing.n.02
p262
I2
sVend.v.04
p263
I1
sVdisappoint.v.01
p264
I1
sVdeath.n.08
p265
I1
sVgame.n.11
p266
I1
sVseventy-five.s.01
p267
I1
sVsex.n.03
p268
I2
sVsleep_together.v.01
p269
I5
sVopinion.n.05
p270
I1
sVsuffer.v.02
p271
I2
sVforward.r.01
p272
I1
sVpopulation.n.05
p273
I1
sVbeware.v.01
p274
I1
sVrepugnance.n.01
p275
I1
sVpin.n.08
p276
I1
sVany.s.01
p277
I1
sVgoal.n.01
p278
I1
sVsociety.n.04
p279
I1
sVoccur.v.02
p280
I2
sVusher.v.01
p281
I3
sVexplain.v.02
p282
I1
sa(dp283
S'concept'
p284
I1
sS'forget'
p285
I1
sS'caused'
p286
I1
sS'EVERYONE'
p287
I1
sS'hate'
p288
I1
sS'children'
p289
I1
sS'finally'
p290
I1
sS'Western'
p291
I1
sS"'Women"
p292
I1
sS'worse'
p293
I1
sS'sitting'
p294
I1
sS'horror'
p295
I1
sS'worst'
p296
I2
sS'animals'
p297
I1
sS'drinking'
p298
I1
sS'ticker'
p299
I1
sS'entire'
p300
I1
sS'button'
p301
I1
sS'item'
p302
I1
sS'enjoy'
p303
I1
sS'prevent'
p304
I1
sS'porn'
p305
I1
sS'discover'
p306
I1
sS'first-world'
p307
I1
sS'surrounding'
p308
I1
sS'video'
p309
I1
sS'educate'
p310
I1
sS'current'
p311
I1
sS'waiting'
p312
I1
sS'version'
p313
I1
sS'officially'
p314
I1
sS'told'
p315
I1
sS'creepiest'
p316
I1
sS'grandparents'
p317
I1
sS'men'
p318
I2
sS'understanding'
p319
I1
sS'tracks'
p320
I1
sS'change'
p321
I1
sS'great'
p322
I1
sS'watchers'
p323
I1
sS'Chinese'
p324
I1
sS'healthy'
p325
I1
sS'30'
p326
I1
sS'completely'
p327
I1
sS'pick'
p328
I1
sS'NOT'
p329
I2
sS'opinion'
p330
I1
sS'weird'
p331
I3
sS'thats'
p332
I1
sS'useful'
p333
I1
sS'win'
p334
I1
sS'Mondays'
p335
I1
sS'working'
p336
I1
sS'two'
p337
I1
sS'next'
p338
I1
sS'live'
p339
I2
sS'call'
p340
I1
sS'clever'
p341
I1
sS"'Reddit"
p342
I1
sS'known'
p343
I1
sS'must'
p344
I1
sS'account'
p345
I1
sS'word'
p346
I2
sS'catchphrase'
p347
I1
sS'work'
p348
I1
sS'regrets'
p349
I1
sS'learn'
p350
I1
sS'Hitler'
p351
I1
sS'history'
p352
I2
sS'crazy'
p353
I2
sS'embarrassing'
p354
I1
sS'favorite'
p355
I1
sS'fuck'
p356
I3
sS'heard'
p357
I1
sS'something'
p358
I7
sS'want'
p359
I1
sS'story'
p360
I2
sS'information'
p361
I1
sS'end'
p362
I2
sS'song'
p363
I2
sS'feature'
p364
I1
sS'1'
p365
I2
sS"'TV"
p366
I1
sS'civilisation'
p367
I1
sS'product'
p368
I1
sS'tried'
p369
I1
sS'Nebraska'
p370
I1
sS'shady'
p371
I1
sS'subreddits'
p372
I2
sS'fictional'
p373
I2
sS'Heck'
p374
I1
sS'funniest'
p375
I2
sS'playing'
p376
I1
sS'talk'
p377
I1
sS'What'
p378
I7
sS'years'
p379
I1
sS'paper'
p380
I1
sS'lyric'
p381
I1
sS'unverified'
p382
I1
sS'25'
p383
I1
sS'interesting'
p384
I1
sS'actually'
p385
I2
sS'better'
p386
I1
sS'harmless'
p387
I1
sS'choose'
p388
I1
sS'instantly'
p389
I1
sS'someone'
p390
I2
sS'animal'
p391
I2
sS'food'
p392
I3
sS'break'
p393
I1
sS'band'
p394
I2
sS'killed'
p395
I1
sS'worlds'
p396
I1
sS'always'
p397
I2
sS'40s'
p398
I1
sS'realise'
p399
I1
sS'found'
p400
I3
sS"'How"
p401
I1
sS'meal'
p402
I1
sS'everyone'
p403
I3
sS'society'
p404
I1
sS'expect'
p405
I1
sS'happen'
p406
I2
sS'really'
p407
I2
sS'shown'
p408
I1
sS"'"
p409
I94
sS'announces'
p410
I1
sS'since'
p411
I1
sS'internet'
p412
I1
sS'red'
p413
I1
sS"'Without"
p414
I1
sS'given'
p415
I1
sS'difficulty'
p416
I1
sS'reason'
p417
I1
sS'thread'
p418
I1
sS'could'
p419
I7
sS'days'
p420
I2
sS'thing'
p421
I11
sS'Ex'
p422
I1
sS'resumes'
p423
I1
sS'think'
p424
I5
sS'first'
p425
I3
sS'dont'
p426
I1
sS'number'
p427
I1
sS'one'
p428
I7
sS'done'
p429
I2
sS'little'
p430
I1
sS'arsehole'
p431
I1
sS"'Recruitersemployers"
p432
I1
sS'perfectly'
p433
I1
sS'relationship'
p434
I1
sS'punish'
p435
I1
sS'explanation'
p436
I1
sS'forward'
p437
I1
sS'part'
p438
I1
sS'population'
p439
I1
sS'unexpectedly'
p440
I1
sS'15'
p441
I1
sS'kink'
p442
I1
sS'feeling'
p443
I2
sS'20s'
p444
I1
sS'false'
p445
I1
sS'wasnt'
p446
I1
sS'mind'
p447
I1
sS'randomly'
p448
I1
sS'say'
p449
I1
sS'afraid'
p450
I1
sS'grandchildren'
p451
I1
sS'person'
p452
I1
sS'studying'
p453
I1
sS'useless'
p454
I1
sS'flags'
p455
I1
sS'wouldntwont'
p456
I1
sS'play'
p457
I1
sS'experienced'
p458
I1
sS'normal'
p459
I1
sS'75'
p460
I1
sS'phase'
p461
I1
sS'tired'
p462
I1
sS'RIGHT'
p463
I2
sS'daydreamfantasize'
p464
I1
sS'later'
p465
I1
sS'order'
p466
I1
sS'fact'
p467
I4
sS'despise'
p468
I1
sS'show'
p469
I2
sS'random'
p470
I1
sS'bring'
p471
I1
sS'hyped'
p472
I1
sS'hack'
p473
I1
sS'fear'
p474
I1
sS'find'
p475
I1
sS'Reddit'
p476
I6
sS'paranoid'
p477
I1
sS'('
p478
I1
sS'ruin'
p479
I1
sS'going'
p480
I1
sS'employee'
p481
I1
sS'personality'
p482
I1
sS'get'
p483
I2
sS'ones'
p484
I1
sS'words'
p485
I1
sS'wedding'
p486
I1
sS"'Bosses"
p487
I1
sS'ever'
p488
I4
sS'irrational'
p489
I1
sS'Hell'
p490
I1
sS'cringe'
p491
I1
sS"'Whats"
p492
I16
sS"'Apart"
p493
I1
sS'sex'
p494
I4
sS"'What"
p495
I48
sS'culture'
p496
I1
sS'see'
p497
I2
sS'Bible'
p498
I1
sS'stigma'
p499
I1
sS'best'
p500
I6
sS'subject'
p501
I2
sS'said'
p502
I1
sS'ways'
p503
I1
sS'movie'
p504
I1
sS'postcomment'
p505
I1
sS'milder'
p506
I1
sS'reddit'
p507
I2
sS'never'
p508
I3
sS'exam'
p509
I1
sS'toilette'
p510
I1
sS'job'
p511
I1
sS'news'
p512
I1
sS"'Youve"
p513
I1
sS'last'
p514
I1
sS'wierdest'
p515
I1
sS'memorized'
p516
I1
sS'according'
p517
I1
sS'games'
p518
I1
sS'comes'
p519
I2
sS"'The"
p520
I1
sS'character'
p521
I2
sS'whatever'
p522
I1
sS'non-sexual'
p523
I1
sS'Carl'
p524
I1
sS"'Everybody"
p525
I1
sS'bullshit'
p526
I1
sS'life'
p527
I3
sS'in-real-life'
p528
I1
sS'else'
p529
I2
sS'understand'
p530
I3
sS'child'
p531
I1
sS'look'
p532
I1
sS'B.S'
p533
I1
sS"'whats"
p534
I1
sS'strangest'
p535
I1
sS'cast'
p536
I1
sS'fun'
p537
I3
sS"'Movie-watchers"
p538
I1
sS'happened'
p539
I2
sS'frustrating'
p540
I1
sS'coolest'
p541
I1
sS'mistake'
p542
I1
sS'Redit'
p543
I1
sS'ever-so-slightly'
p544
I1
sS'player'
p545
I1
sS'good'
p546
I2
sS'different'
p547
I1
sS')'
p548
I1
sS'things'
p549
I1
sS'make'
p550
I2
sS'forehead'
p551
I1
sS'fantasized'
p552
I1
sS'gets'
p553
I1
sS'used'
p554
I1
sS'itch'
p555
I1
sS'I'
p556
I1
sS'moment'
p557
I2
sS'opportunity'
p558
I1
sS'youre'
p559
I2
sS'anybody'
p560
I1
sS'tricks'
p561
I1
sS'Im'
p562
I1
sS'greatest'
p563
I1
sS'Have'
p564
I1
sS'In'
p565
I1
sS'throwaway'
p566
I1
sS'money'
p567
I1
sS"'Which"
p568
I2
sS'world'
p569
I4
sS'death'
p570
I1
sS'$'
p571
I1
sS'seems'
p572
I1
sS"'Redditors"
p573
I2
sS'googling'
p574
I1
sS'interested'
p575
I1
sS'parents'
p576
I2
sS'5'
p577
I1
sS'save'
p578
I2
sS'humanity'
p579
I1
sS'real'
p580
I1
sS'...'
p581
I1
sS'represents'
p582
I1
sS'read'
p583
I1
sS'big'
p584
I1
sS'showing'
p585
I1
sS'shitty'
p586
I1
sS'game'
p587
I2
sS'five'
p588
I1
sS'know'
p589
I4
sS'press'
p590
I1
sS'using'
p591
I1
sS'disappointed'
p592
I1
sS'like'
p593
I3
sS'lost'
p594
I1
sS'ignore'
p595
I1
sS'right'
p596
I1
sS'old'
p597
I1
sS'people'
p598
I9
sS'fucking'
p599
I1
sS'30s'
p600
I1
sS'Excel'
p601
I1
sS"'If"
p602
I10
sS'home'
p603
I1
sS'scandals'
p604
I1
sS'avoid'
p605
I1
sS"'AskReddit"
p606
I1
sS'legal'
p607
I1
sS'lifehacks'
p608
I1
sS'q-tip'
p609
I1
sS'seconds'
p610
I1
sS'would'
p611
I15
sS'wouldnt'
p612
I1
sS'getting'
p613
I1
sS'accepts'
p614
I1
sS'virus'
p615
I1
sS'youve'
p616
I5
sS'hometown'
p617
I1
sS'Make'
p618
I1
sS'youd'
p619
I1
sS'pick-up'
p620
I1
sS'negative'
p621
I1
sS"'Besides"
p622
I1
sS"'Parents"
p623
I1
sS'technically'
p624
I1
sS'unoriginality'
p625
I1
sS'..'
p626
I1
sS'fight'
p627
I1
sS'intention'
p628
I1
sS'way'
p629
I2
sS'biggest'
p630
I2
sS':'
p631
I2
sS'sequel'
p632
I1
sS'repeated'
p633
I1
sS'hear'
p634
I1
sS'line'
p635
I1
sS'downstairs'
p636
I1
sS'eat'
p637
I2
sS'hire'
p638
I1
sS'made'
p639
I2
sS'wish'
p640
I1
sS'nicest'
p641
I1
sS'problem'
p642
I1
sS'called'
p643
I2
sS'ASAP'
p644
I1
sS'How'
p645
I1
sS'single'
p646
I1
sS'lifetime'
p647
I1
sS'dying'
p648
I1
sS'contest'
p649
I1
sS'actor'
p650
I1
sS'book'
p651
I1
sS'role'
p652
I1
sS'TB'
p653
I1
sS'realize'
p654
I1
sS'explaining'
p655
I1
sS'kinds'
p656
I1
sS'gross'
p657
I1
sS'favourite'
p658
I2
sS'4Chan'
p659
I1
sS'meaning'
p660
I1
sS'unattractive'
p661
I1
sS'died'
p662
I1
sS'ago'
p663
I1
sS'happier'
p664
I1
sS'age'
p665
I3
sS'rule'
p666
I1
sS'underrated'
p667
I1
sS'original'
p668
I1
saI712
a.