(lp0
(dp1
Vapparently.r.01
p2
I1
sVprofit.v.01
p3
I1
sVtribe.n.01
p4
I1
sVthing.n.12
p5
I16
sVunofficial.a.01
p6
I1
sVnever.r.02
p7
I3
sVfame.n.01
p8
I2
sVadvice.n.01
p9
I2
sVmeaningless.a.01
p10
I1
sVurine.n.01
p11
I1
sVnotice.v.04
p12
I2
sVviolet.n.02
p13
I1
sVnotice.v.02
p14
I1
sVcomparable.s.02
p15
I1
sVlook.n.03
p16
I1
sVangry.a.01
p17
I1
sVopinion.n.05
p18
I3
sVtug.n.01
p19
I1
sVvoice.v.02
p20
I2
sVtall_mallow.n.01
p21
I1
sVundertaking.n.01
p22
I1
sVland.n.04
p23
I1
sVtry_on.v.01
p24
I3
sVsurpass.v.02
p25
I1
sVneglect.v.04
p26
I1
sVserve.v.07
p27
I1
sVfast.r.02
p28
I1
sVable.a.01
p29
I1
sVbatman.n.01
p30
I1
sVengland.n.01
p31
I1
sVfly.v.08
p32
I1
sVtake.v.27
p33
I2
sVstranger.n.01
p34
I1
sVincredibly.r.01
p35
I1
sVwake_up.v.02
p36
I1
sVtrouble.n.01
p37
I1
sVmetier.n.02
p38
I1
sVmilitary.a.01
p39
I1
sVninety.s.01
p40
I1
sVmusic.n.05
p41
I1
sVmemory.n.05
p42
I1
sVbasically.r.01
p43
I1
sVthirty.s.01
p44
I1
sVfind_oneself.v.01
p45
I1
sVdriving.n.02
p46
I1
sVsay.v.09
p47
I6
sVbrit.n.03
p48
I1
sVtrace.v.02
p49
I1
sVunidentified_flying_object.n.01
p50
I1
sVrat.v.01
p51
I1
sVdepression.n.04
p52
I1
sVfree-base.v.01
p53
I1
sVmake.v.02
p54
I1
sVcombination.n.07
p55
I1
sVuranium.n.01
p56
I3
sVfelony.n.01
p57
I1
sVevery.s.02
p58
I1
sVattract.v.03
p59
I1
sVunable.a.01
p60
I1
sVwish.v.01
p61
I1
sVwish.v.02
p62
I2
sVfail.v.04
p63
I1
sVfail.v.03
p64
I1
sVwish.v.06
p65
I2
sVuse.v.04
p66
I2
sVprofession.n.04
p67
I1
sVwrinkle.n.01
p68
I1
sVbecome.v.04
p69
I1
sVrecently.r.01
p70
I3
sVdad.n.01
p71
I1
sVtrip.v.04
p72
I2
sVbeat.v.11
p73
I1
sVsocial.a.03
p74
I2
sVson.n.01
p75
I1
sVinternet.n.01
p76
I2
sVrose.n.03
p77
I1
sVconstantly.r.02
p78
I3
sVrevert.v.01
p79
I1
sVcheat_on.v.01
p80
I1
sVhappy.a.01
p81
I1
sVsuddenly.r.01
p82
I1
sVfood.n.03
p83
I5
sVunlimited.a.01
p84
I1
sVcheer.v.05
p85
I1
sVdirectly.r.04
p86
I1
sVliterally.r.02
p87
I2
sVlocal.n.01
p88
I1
sVpregnancy.n.01
p89
I1
sVold.a.02
p90
I2
sVunconstipated.a.01
p91
I3
sVcount.v.02
p92
I1
sVsense.n.02
p93
I1
sVquantity.n.03
p94
I1
sVinoffensive.a.02
p95
I1
sVunintentionally.r.01
p96
I1
sVsex.n.04
p97
I3
sVwhitethorn.n.01
p98
I2
sVoccur.v.02
p99
I1
sVemployment.n.02
p100
I1
sVtorso.n.01
p101
I2
sVmake.v.41
p102
I1
sVmake.v.42
p103
I1
sVmake.v.49
p104
I1
sVhat.v.02
p105
I1
sVway.n.11
p106
I6
sVoften.r.03
p107
I1
sVvocabulary.n.02
p108
I1
sVthreat.n.03
p109
I1
sVinduce.v.02
p110
I1
sVplatitude.n.01
p111
I1
sVnecessitate.v.01
p112
I1
sVone.s.06
p113
I5
sVregretful.a.01
p114
I4
sVtwo.s.01
p115
I2
sVgo.n.04
p116
I1
sVsexually.r.02
p117
I1
sVinstantaneously.r.01
p118
I1
sVabout.r.07
p119
I2
sVsimple.a.06
p120
I1
sVshower.n.06
p121
I1
sVcheap.a.01
p122
I1
sVbirthday.n.02
p123
I1
sVwitness.v.02
p124
I2
sVpractically.r.01
p125
I1
sVworldly_concern.n.01
p126
I4
sVfriend.n.01
p127
I1
sVtasty.a.01
p128
I1
sVlike.v.04
p129
I1
sVlife.n.07
p130
I1
sVcreate.v.02
p131
I1
sVpoem.n.01
p132
I1
sVlittle.a.02
p133
I2
sVconflict.n.01
p134
I1
sVdiet.n.02
p135
I1
sVworld_power.n.01
p136
I1
sVdistraction.n.04
p137
I1
sVgrain.n.02
p138
I1
sVuseful.a.01
p139
I1
sVyet.r.04
p140
I2
sVparking_lot.n.01
p141
I1
sVmelt.v.06
p142
I1
sVwiretap.v.01
p143
I1
sVhand.n.01
p144
I1
sVtonight.r.01
p145
I1
sVbuy.v.05
p146
I1
sVweight_unit.n.02
p147
I2
sVpilfer.v.01
p148
I1
sVcleansing_agent.n.01
p149
I1
sVstatement.n.07
p150
I1
sVtelevision_receiver.n.01
p151
I2
sVold_age.n.01
p152
I1
sVlarge.a.01
p153
I3
sVfirst.a.06
p154
I1
sVamerican.a.02
p155
I1
sVfight.n.05
p156
I2
sVcatch.v.18
p157
I1
sVlisten.v.02
p158
I1
sVtopographic_point.n.01
p159
I2
sVdislike.v.01
p160
I1
sVad.n.01
p161
I1
sVthird.s.01
p162
I1
sVzanzibar_copal.n.01
p163
I1
sVemotionally.r.02
p164
I1
sVsidereal_day.n.01
p165
I1
sVtrap.n.06
p166
I1
sVviolate.v.01
p167
I1
sVmiddle.a.04
p168
I1
sVcar.n.04
p169
I1
sVamazingly.r.01
p170
I2
sVdormitory.n.01
p171
I1
sVyield.v.01
p172
I2
sVweb_site.n.01
p173
I1
sVkid.n.05
p174
I1
sVthink.v.01
p175
I3
sVsong.n.05
p176
I4
sVthink.v.06
p177
I7
sVsleep_together.v.01
p178
I7
sVjoin.v.04
p179
I1
sVright.r.07
p180
I1
sVright.r.04
p181
I1
sVclose.v.10
p182
I1
sVsupporter.n.01
p183
I1
sVillegal.a.01
p184
I1
sVright.v.01
p185
I1
sVquotation_mark.n.01
p186
I1
sVgood.a.03
p187
I5
sVgood.a.01
p188
I1
sVwoman.n.01
p189
I1
sVsadness.n.01
p190
I1
sVwatch.v.06
p191
I1
sVwatch.v.03
p192
I3
sVmiscarriage.n.01
p193
I1
sVbest.a.01
p194
I8
sVsuppose.v.01
p195
I1
sVstory.n.02
p196
I2
sVimmortality.n.02
p197
I1
sVpersonal.a.05
p198
I1
sVarmy.n.02
p199
I1
sVmale.a.01
p200
I1
sVpenis.n.01
p201
I1
sVpoland.n.01
p202
I1
sVgenitalia.n.01
p203
I1
sVdoctor_of_sacred_theology.n.01
p204
I1
sVreprise.v.01
p205
I1
sVvery.r.01
p206
I4
sVpeople.n.03
p207
I12
sVpeople.n.01
p208
I3
sVend.v.01
p209
I1
sVend.v.04
p210
I1
sVbad.a.01
p211
I1
sVirrationally.r.01
p212
I1
sVbeware.v.01
p213
I1
sVusher.v.01
p214
I1
sVsee.v.05
p215
I1
sVsupply.n.02
p216
I1
sVtitle.n.06
p217
I3
sVview.n.07
p218
I1
sVwilling.a.01
p219
I2
sVrevue.n.01
p220
I1
sVshow.n.03
p221
I4
sVprofoundly.r.01
p222
I1
sVanswer.n.04
p223
I1
sVtime.n.06
p224
I5
sVacquire.v.05
p225
I1
sValike.a.01
p226
I1
sVavoid.v.03
p227
I1
sVfolder.n.02
p228
I1
sVlack.n.01
p229
I1
sVone.s.05
p230
I1
sVoption.n.02
p231
I1
sVequivalent.n.02
p232
I1
sVslang.n.02
p233
I2
sVhigh.a.02
p234
I1
sVchoose.v.03
p235
I1
sVfear.n.03
p236
I2
sVrun_low.v.01
p237
I1
sVfooting.n.02
p238
I1
sVtype.n.06
p239
I1
sVwrong.v.01
p240
I1
sVkaraoke.n.01
p241
I1
sVwar.n.01
p242
I1
sVwar.n.04
p243
I1
sVcompliment.n.01
p244
I1
sVcity.n.03
p245
I2
sVfictional.a.01
p246
I1
sVtry.v.01
p247
I1
sVwage.n.01
p248
I2
sVround.r.01
p249
I1
sVworkshop.n.02
p250
I1
sVgrad.n.01
p251
I1
sVacceptable.a.01
p252
I1
sVbear.v.06
p253
I1
sVnormal.a.03
p254
I1
sVworld.n.03
p255
I1
sVsnap.v.06
p256
I1
sVinteresting.a.01
p257
I1
sVsexual_love.n.02
p258
I1
sVspirit.n.02
p259
I1
sVinterested.a.01
p260
I2
sVschool.n.06
p261
I5
sVnorm.n.01
p262
I1
sVshare.v.04
p263
I1
sVlend.v.01
p264
I1
sVexist.v.02
p265
I2
sVguy.n.03
p266
I1
sVtell.v.07
p267
I1
sVtemper.n.02
p268
I2
sVtell.v.03
p269
I1
sVtake.v.08
p270
I3
sVstop.v.05
p271
I1
sVwant.v.05
p272
I3
sVwindow.n.04
p273
I1
sVsurvive.v.01
p274
I2
sVwant.v.02
p275
I1
sVtrue.a.01
p276
I1
sVfire_warden.n.01
p277
I1
sVconsequence.n.03
p278
I1
sVpilot_program.n.02
p279
I1
sVfall.v.17
p280
I1
sVsteal.v.01
p281
I2
sVadopt.v.02
p282
I1
sVprofound.a.01
p283
I1
sVtoken.n.01
p284
I1
sVmuch.a.01
p285
I2
sVtwice.r.01
p286
I1
sVhighly.r.01
p287
I1
sVdifficulty.n.03
p288
I1
sVone.n.02
p289
I4
sVbite.n.04
p290
I2
sVcare.n.01
p291
I2
sVlast.a.02
p292
I1
sVbiography.n.01
p293
I3
sVhate.v.01
p294
I2
sVtalk.v.02
p295
I1
sVtownship.n.01
p296
I1
sVactually.r.01
p297
I1
sVstate.n.04
p298
I3
sVactually.r.04
p299
I2
sVovercome.v.02
p300
I1
sVcharacter.n.07
p301
I1
sVcharacter.n.04
p302
I1
sVsexual.a.02
p303
I1
sVthink.v.10
p304
I1
sVposition.n.03
p305
I1
sVeye.n.05
p306
I1
sVprogressive.n.01
p307
I1
sVmighty.r.01
p308
I1
sVlubricant.n.01
p309
I1
sVpark.n.06
p310
I1
sVlike.n.02
p311
I1
sVeat.v.02
p312
I1
sVnew.a.06
p313
I3
sVarea.n.01
p314
I1
sVpublic.a.01
p315
I1
sVplump.v.04
p316
I1
sVhope.v.03
p317
I1
sVlady.n.01
p318
I1
sVunvoiced.a.01
p319
I1
sVbatch.n.02
p320
I2
sVvoice.n.01
p321
I1
sVsecond.v.01
p322
I1
sVthing.n.07
p323
I2
sVpoint.n.24
p324
I1
sVthing.n.02
p325
I1
sVnatural_depression.n.01
p326
I2
sVanxiety.n.02
p327
I2
sVtouch.v.05
p328
I1
sVseem.v.04
p329
I1
sVresist.v.06
p330
I1
sVincorrect.a.01
p331
I1
sVexplain.v.02
p332
I1
sVsoundtrack.n.01
p333
I1
sVmess.v.02
p334
I1
sVtrigger.n.03
p335
I1
sVoccupation.n.01
p336
I1
sVdiscrimination.n.02
p337
I1
sVclaim.v.02
p338
I1
sVnone.n.02
p339
I1
sVold_world_buffalo.n.01
p340
I1
sVexpose.v.03
p341
I1
sVoutrageously.r.02
p342
I1
sVsmart.a.01
p343
I1
sVfar.r.05
p344
I2
sVsports_fan.n.01
p345
I1
sVnecessary.a.01
p346
I1
sVbetter.v.03
p347
I2
sVunited_states.n.01
p348
I1
sVgold.n.05
p349
I1
sVotherwise.r.01
p350
I1
sVexperience.n.03
p351
I1
sVremark.n.01
p352
I1
sVput.v.02
p353
I2
sVput.v.01
p354
I2
sVmantra.n.02
p355
I1
sVgive.v.10
p356
I1
sVcontroversy.n.01
p357
I1
sVreasonably.r.01
p358
I1
sVwholly.r.01
p359
I1
sVask.v.05
p360
I1
sVmovie.n.01
p361
I12
sVname.v.01
p362
I1
sVstrange.a.01
p363
I2
sVchild.n.04
p364
I2
sVbook.n.01
p365
I1
sVchild.n.03
p366
I1
sVplot.n.01
p367
I2
sVplot.n.04
p368
I1
sVlose.v.05
p369
I1
sVfact.n.04
p370
I1
sVmistake.n.01
p371
I1
sVcomplete.a.01
p372
I1
sVstill.r.01
p373
I1
sVroom.n.04
p374
I1
sVvisualize.v.01
p375
I9
sVpotential.a.01
p376
I1
sVrule.n.06
p377
I2
sVdepress.v.01
p378
I1
sVget.v.01
p379
I1
sVmiss.v.03
p380
I1
sVrecommend.v.03
p381
I1
sVfive.s.01
p382
I1
sVcontend.v.06
p383
I1
sVexpression.n.01
p384
I1
sVwalk.v.01
p385
I1
sVfind.v.05
p386
I1
sVgirlfriend.n.02
p387
I2
sVsocially.r.02
p388
I1
sVsleep.v.02
p389
I1
sVcourse.n.01
p390
I1
sVimpression.n.02
p391
I1
sVcurrent.a.01
p392
I1
sVever.r.03
p393
I8
sVleft.a.01
p394
I1
sVentertainment.n.01
p395
I1
sVincident.n.02
p396
I1
sVtraverse.v.03
p397
I1
sVmismatched.a.01
p398
I1
sVwitch.n.02
p399
I1
sVtoy.v.02
p400
I1
sVend.n.06
p401
I3
sVwell.r.01
p402
I2
sVdeep.a.03
p403
I1
sVawkward.a.02
p404
I2
sVrestaurant.n.01
p405
I1
sVmoment.n.06
p406
I2
sVsexual_activity.n.01
p407
I1
sVwomanhood.n.02
p408
I2
sVirrational.a.01
p409
I1
sVstereotype.n.01
p410
I1
sVyear.n.02
p411
I1
sVyear.n.01
p412
I1
sVadventure.n.01
p413
I1
sVvideo_recording.n.01
p414
I1
sVtruthful.a.01
p415
I1
sVdrunkard.n.01
p416
I1
sVcommon.a.02
p417
I2
sVbesides.r.01
p418
I1
sVetiquette.n.01
p419
I1
sVtrust.n.04
p420
I1
sVcope.v.01
p421
I1
sVlearn.v.02
p422
I1
sVmasthead.n.01
p423
I1
sVidol.n.01
p424
I2
sVmorally.r.02
p425
I2
sVexpectation.n.03
p426
I1
sVmilk.n.04
p427
I1
sVrepulsive.a.02
p428
I1
sVmodestly.r.01
p429
I1
sVquestion.n.06
p430
I2
sVsmall.a.01
p431
I3
sVunderstand.v.02
p432
I2
sVvisit.n.04
p433
I1
sVmake.v.35
p434
I1
sVtourist.n.01
p435
I1
sVperplex.v.01
p436
I1
sVskill.n.02
p437
I1
sVerbium.n.01
p438
I1
sVperson.n.01
p439
I6
sVannoy.v.01
p440
I3
sVperson.n.03
p441
I1
sVthought.n.03
p442
I2
sVimpossible.a.01
p443
I1
sVsequence.n.03
p444
I1
sVsubject.n.06
p445
I1
sVhabit.n.05
p446
I1
sVstartle.v.02
p447
I1
sVcleanse.v.01
p448
I1
sVdawn.n.02
p449
I1
sVuncommon.a.01
p450
I1
sVofficial.n.02
p451
I1
sVstart.v.09
p452
I1
sa(dp453
S'mattered'
p454
I1
sS'lack'
p455
I1
sS'sleep'
p456
I1
sS'battle'
p457
I1
sS'everyones'
p458
I1
sS'hate'
p459
I2
sS'children'
p460
I1
sS'late'
p461
I1
sS"'Women"
p462
I1
sS'norm'
p463
I1
sS'pay'
p464
I2
sS'woman'
p465
I1
sS'returned'
p466
I1
sS'jerk'
p467
I1
sS'song'
p468
I4
sS'far'
p469
I2
sS'seemingly'
p470
I1
sS'every'
p471
I1
sS'fall'
p472
I1
sS'subreddit'
p473
I1
sS'school'
p474
I5
sS'gender'
p475
I1
sS'celebrity'
p476
I1
sS'joined'
p477
I1
sS'large'
p478
I1
sS'item'
p479
I1
sS'irrationally'
p480
I1
sS'small'
p481
I2
sS'guy'
p482
I1
sS'porn'
p483
I1
sS'irritates'
p484
I1
sS'pregnancies'
p485
I1
sS'go'
p486
I2
sS'video'
p487
I1
sS'depression'
p488
I2
sS'blue'
p489
I1
sS'90s'
p490
I1
sS'deeply'
p491
I1
sS'milk'
p492
I1
sS"'You"
p493
I2
sS'new'
p494
I3
sS'America'
p495
I1
sS'ever'
p496
I8
sS'public'
p497
I1
sS'A+E'
p498
I1
sS'told'
p499
I1
sS'body'
p500
I2
sS'creepiest'
p501
I1
sS'funeral'
p502
I1
sS'never'
p503
I3
sS'We'
p504
I1
sS'witch'
p505
I1
sS'dorm'
p506
I1
sS"'Movie-watchers"
p507
I1
sS'non-sexual'
p508
I2
sS'extreme'
p509
I1
sS'Deal'
p510
I1
sS'30'
p511
I1
sS'experience'
p512
I1
sS'social'
p513
I2
sS'opinion'
p514
I3
sS'thats'
p515
I2
sS'tasks'
p516
I1
sS'useful'
p517
I1
sS'extra'
p518
I1
sS'suddenly'
p519
I1
sS'uphill'
p520
I1
sS'names'
p521
I1
sS'dumbest'
p522
I1
sS'plot'
p523
I1
sS'multitasked'
p524
I1
sS'would'
p525
I11
sS'pro-tips'
p526
I1
sS'illegal'
p527
I1
sS'angry'
p528
I1
sS'two'
p529
I2
sS'live'
p530
I1
sS'music'
p531
I1
sS'recommend'
p532
I1
sS'taken'
p533
I1
sS'assulted'
p534
I1
sS'type'
p535
I1
sS'tell'
p536
I1
sS'clever'
p537
I1
sS'knows'
p538
I1
sS'acceptable'
p539
I1
sS'site'
p540
I1
sS"'Reddit"
p541
I8
sS'flag'
p542
I1
sS'baby'
p543
I1
sS'hole'
p544
I1
sS'given'
p545
I1
sS'women'
p546
I2
sS'town'
p547
I1
sS'none'
p548
I1
sS'morally'
p549
I2
sS'room'
p550
I1
sS'cheapest'
p551
I1
sS'car'
p552
I1
sS'work'
p553
I1
sS'abortion'
p554
I1
sS'cant'
p555
I2
sS'believes'
p556
I1
sS'reviews'
p557
I1
sS'hardest'
p558
I1
sS'male'
p559
I1
sS'didnt'
p560
I1
sS'claim'
p561
I1
sS'embarrassing'
p562
I1
sS'give'
p563
I1
sS'awesome'
p564
I3
sS'high'
p565
I1
sS'heard'
p566
I1
sS'foods'
p567
I1
sS'something'
p568
I11
sS'want'
p569
I3
sS'sense'
p570
I1
sS'disliked'
p571
I1
sS'worse'
p572
I2
sS'end'
p573
I1
sS'awkward'
p574
I2
sS'describes'
p575
I1
sS'surpassed'
p576
I1
sS'beat'
p577
I1
sS"'Educated"
p578
I1
sS'fourth'
p579
I1
sS'answer'
p580
I1
sS'Why'
p581
I1
sS'tried'
p582
I2
sS'rude'
p583
I1
sS'may'
p584
I1
sS'stop'
p585
I1
sS'advice'
p586
I2
sS'soundtrack'
p587
I1
sS'wrong'
p588
I1
sS'birthday'
p589
I1
sS'mankind'
p590
I1
sS'bugs'
p591
I1
sS'fictional'
p592
I1
sS"'what"
p593
I1
sS'media'
p594
I1
sS'fan'
p595
I1
sS'Trust'
p596
I1
sS'park'
p597
I2
sS'talk'
p598
I1
sS'What'
p599
I7
sS'displayed'
p600
I1
sS'years'
p601
I2
sS'isnt'
p602
I1
sS"'For"
p603
I1
sS'still'
p604
I1
sS'horny'
p605
I1
sS"'Experienced"
p606
I1
sS'personal'
p607
I1
sS'interesting'
p608
I1
sS'expectations'
p609
I1
sS"'Star"
p610
I1
sS'actually'
p611
I3
sS'better'
p612
I1
sS'immortality'
p613
I1
sS'willing'
p614
I2
sS'choose'
p615
I1
sS'hidden'
p616
I1
sS'instantly'
p617
I1
sS'dad'
p618
I1
sS'modestly'
p619
I1
sS'non'
p620
I1
sS'someone'
p621
I5
sS'combination'
p622
I1
sS'food'
p623
I4
sS'socially'
p624
I1
sS'break'
p625
I1
sS'repulsive'
p626
I1
sS'mismatched'
p627
I1
sS'day'
p628
I1
sS'worlds'
p629
I1
sS'profound'
p630
I1
sS'always'
p631
I2
sS'outrageously'
p632
I1
sS'mastered'
p633
I1
sS'realise'
p634
I2
sS'die'
p635
I1
sS'went'
p636
I1
sS"'How"
p637
I6
sS'everyone'
p638
I5
sS'weight'
p639
I2
sS'adventure'
p640
I1
sS'accidentally'
p641
I1
sS'society'
p642
I1
sS'sexually'
p643
I1
sS'creepy/unsettling'
p644
I1
sS'sexual'
p645
I1
sS'amusement'
p646
I1
sS'really'
p647
I4
sS"'They"
p648
I1
sS"'"
p649
I166
sS'race/religion/nationality'
p650
I1
sS'hooked'
p651
I1
sS'Wars'
p652
I1
sS'attracted'
p653
I1
sS'internet'
p654
I1
sS'Army'
p655
I1
sS'correct'
p656
I1
sS'red'
p657
I2
sS'Cleaners'
p658
I1
sS'story'
p659
I2
sS'difficulty'
p660
I1
sS'completely'
p661
I1
sS'felonies'
p662
I1
sS'lucrative'
p663
I1
sS'besides'
p664
I1
sS'ask'
p665
I2
sS'ER'
p666
I1
sS'created'
p667
I1
sS'could'
p668
I2
sS'terrible'
p669
I1
sS'times'
p670
I1
sS'thing'
p671
I16
sS'place'
p672
I1
sS'threat'
p673
I1
sS'restaurants'
p674
I1
sS'think'
p675
I9
sS'Depression'
p676
I1
sS'first'
p677
I1
sS'cheese'
p678
I2
sS'benefited'
p679
I1
sS'dont'
p680
I3
sS'feel'
p681
I1
sS"'College"
p682
I1
sS'one'
p683
I9
sS'done'
p684
I4
sS'impossible'
p685
I1
sS'sounds'
p686
I2
sS'noticed'
p687
I1
sS'miss'
p688
I1
sS'grads'
p689
I1
sS'city'
p690
I2
sS'little'
p691
I2
sS'rated'
p692
I1
sS'caught'
p693
I1
sS'girls'
p694
I2
sS'anyone'
p695
I1
sS'statement'
p696
I1
sS'tourists'
p697
I1
sS'friend'
p698
I2
sS'eyes'
p699
I1
sS'imperfect'
p700
I1
sS'lot'
p701
I2
sS'cope'
p702
I1
sS'serve'
p703
I1
sS'took'
p704
I1
sS'depressing'
p705
I1
sS'part'
p706
I1
sS'cereal'
p707
I1
sS'believe'
p708
I1
sS'resist'
p709
I1
sS'anxiety'
p710
I2
sS'Roses'
p711
I1
sS'depressed'
p712
I1
sS"'Students"
p713
I1
sS'shower'
p714
I1
sS'frugal'
p715
I1
sS'silly'
p716
I1
sS'wandering'
p717
I1
sS'violets'
p718
I1
sS'God'
p719
I2
sS'mind'
p720
I1
sS'argument'
p721
I1
sS'tonight'
p722
I1
sS'all-time'
p723
I1
sS'say'
p724
I7
sS'need'
p725
I1
sS'seen'
p726
I7
sS'worst'
p727
I2
sS'Do'
p728
I2
sS'smallest'
p729
I1
sS'person'
p730
I1
sS'NEVER'
p731
I1
sS'-'
p732
I1
sS'folk'
p733
I1
sS'With'
p734
I2
sS'play'
p735
I1
sS'normal'
p736
I1
sS'quote'
p737
I1
sS'regular'
p738
I3
sS'eaten'
p739
I1
sS'extremely'
p740
I1
sS'class'
p741
I1
sS"'Gamers"
p742
I1
sS'episode'
p743
I1
sS'consequences'
p744
I1
sS'windows'
p745
I1
sS'average'
p746
I1
sS'Megathread'
p747
I1
sS'face'
p748
I1
sS'ridiculous'
p749
I1
sS'left'
p750
I1
sS'fact'
p751
I1
sS"'Who"
p752
I3
sS'walking'
p753
I1
sS'show'
p754
I5
sS"'Hey"
p755
I1
sS'celebrities'
p756
I1
sS'ending'
p757
I1
sS'earth'
p758
I1
sS'fear'
p759
I2
sS'find'
p760
I2
sS'current'
p761
I1
sS'Reddit'
p762
I11
sS'snack'
p763
I2
sS'based'
p764
I1
sS'title'
p765
I3
sS'('
p766
I4
sS'explain'
p767
I1
sS'locals'
p768
I1
sS'going'
p769
I1
sS'pretty'
p770
I1
sS'folder'
p771
I1
sS'hope'
p772
I1
sS'borrowed'
p773
I1
sS'visiters'
p774
I1
sS'get'
p775
I2
sS"'Add"
p776
I1
sS'watch'
p777
I2
sS'preferred'
p778
I1
sS'famous'
p779
I1
sS'ones'
p780
I1
sS'Not-America'
p781
I1
sS'distraction'
p782
I1
sS"'Which"
p783
I3
sS'Gold'
p784
I1
sS"'Park"
p785
I1
sS'youll'
p786
I1
sS'irrational'
p787
I1
sS'morning'
p788
I1
sS'twice'
p789
I1
sS'bad'
p790
I1
sS'common'
p791
I2
sS'steal'
p792
I1
sS'STDs'
p793
I1
sS'view'
p794
I2
sS'habit'
p795
I1
sS"'Whats"
p796
I23
sS'Internet'
p797
I1
sS'notice'
p798
I2
sS'sex'
p799
I3
sS"'What"
p800
I77
sS'mantra'
p801
I1
sS'see'
p802
I3
sS'alternative'
p803
I1
sS'best'
p804
I9
sS'satisfying'
p805
I1
sS'ways'
p806
I2
sS'movie'
p807
I10
sS"'At"
p808
I1
sS'quickest'
p809
I2
sS'closed'
p810
I1
sS'simplest'
p811
I1
sS"'Sleepwalkers"
p812
I1
sS'compliment'
p813
I1
sS'reddit'
p814
I7
sS'recently'
p815
I2
sS'messed'
p816
I1
sS'pisses'
p817
I1
sS'attention'
p818
I2
sS'things/actions'
p819
I1
sS'incident'
p820
I1
sS'death'
p821
I2
sS'betrayed'
p822
I1
sS"'Youve"
p823
I1
sS'improve'
p824
I2
sS'essentially'
p825
I1
sS'instant'
p826
I1
sS'triggers'
p827
I3
sS'country'
p828
I4
sS"'Men"
p829
I2
sS'Yep'
p830
I1
sS'comes'
p831
I1
sS'otherwise'
p832
I1
sS'comment'
p833
I1
sS'necessary'
p834
I1
sS'drunk'
p835
I1
sS'seems'
p836
I1
sS'unprotected'
p837
I1
sS'poem'
p838
I1
sS'puts'
p839
I2
sS'basis'
p840
I1
sS'discrimination'
p841
I1
sS'workshop'
p842
I1
sS'meeting'
p843
I1
sS'life'
p844
I3
sS'uninteresting/common'
p845
I1
sS'quantities'
p846
I1
sS'Poland'
p847
I1
sS'1350'
p848
I1
sS'uncommon'
p849
I1
sS'else'
p850
I1
sS'Sadness'
p851
I1
sS'wake'
p852
I1
sS'child'
p853
I1
sS'last'
p854
I1
sS'pilot'
p855
I1
sS'stolen'
p856
I1
sS'look'
p857
I2
sS'UFO'
p858
I1
sS'straight'
p859
I1
sS'strangest'
p860
I2
sS'ongoing'
p861
I1
sS'error'
p862
I1
sS'exist'
p863
I2
sS'abducted'
p864
I1
sS'voice'
p865
I1
sS'supply'
p866
I1
sS"'When"
p867
I2
sS'almost'
p868
I2
sS'Redditors'
p869
I2
sS'surprisingly'
p870
I2
sS'middle'
p871
I1
sS'Lube'
p872
I1
sS'good'
p873
I5
sS'creepy'
p874
I1
sS'You'
p875
I1
sS')'
p876
I4
sS'things'
p877
I3
sS'make'
p878
I2
sS'member'
p879
I1
sS'gets'
p880
I2
sS'inoffensive'
p881
I1
sS'used'
p882
I1
sS"'Window"
p883
I1
sS'emotionally'
p884
I1
sS'I'
p885
I1
sS'hand'
p886
I1
sS'moment'
p887
I2
sS'cleaning'
p888
I1
sS'military'
p889
I1
sS'fucked'
p890
I1
sS'YOU'
p891
I2
sS'thoughts'
p892
I2
sS'kid'
p893
I1
sS'try'
p894
I2
sS'Is'
p895
I1
sS'well'
p896
I1
sS'fighting'
p897
I1
sS'May'
p898
I1
sS'cheer'
p899
I1
sS'without'
p900
I1
sS'In'
p901
I3
sS'position'
p902
I1
sS'effects'
p903
I1
sS'etiquette'
p904
I1
sS'able'
p905
I1
sS'unofficial'
p906
I1
sS'cease'
p907
I1
sS'using'
p908
I1
sS'love'
p909
I3
sS'skill'
p910
I1
sS'Nope'
p911
I1
sS'yet'
p912
I2
sS'wage'
p913
I1
sS'teenaged'
p914
I1
sS'unable'
p915
I1
sS'hated'
p916
I1
sS'point'
p917
I1
sS'character'
p918
I1
sS"'Redditors"
p919
I6
sS'rangers'
p920
I1
sS'add'
p921
I1
sS'setting'
p922
I1
sS'crack'
p923
I1
sS'5'
p924
I1
sS'Karaoke'
p925
I1
sS'smart'
p926
I1
sS'take'
p927
I1
sS'around'
p928
I1
sS'rules'
p929
I2
sS'unlimited'
p930
I1
sS'possible'
p931
I1
sS'game'
p932
I2
sS'know'
p933
I3
sS'world'
p934
I3
sS'accepted'
p935
I1
sS'lady'
p936
I1
sS'England'
p937
I1
sS'like'
p938
I6
sS'lost'
p939
I1
sS'ignore'
p940
I1
sS'overrated'
p941
I2
sS'become'
p942
I1
sS"'Do"
p943
I2
sS'right'
p944
I2
sS'old'
p945
I2
sS'often'
p946
I1
sS'stereotype'
p947
I1
sS'people'
p948
I15
sS'1st'
p949
I1
sS'back'
p950
I1
sS'driving'
p951
I1
sS"'If"
p952
I4
sS"'In"
p953
I2
sS'mood'
p954
I2
sS'literally'
p955
I2
sS'avoid'
p956
I1
sS'denied'
p957
I1
sS'pee'
p958
I1
sS'Are'
p959
I1
sS'power'
p960
I1
sS'equivalent'
p961
I1
sS'disappeared'
p962
I1
sS'putting'
p963
I1
sS'spouse/partner'
p964
I1
sS'anything'
p965
I1
sS'favorite'
p966
I4
sS'US'
p967
I2
sS'cliche'
p968
I1
sS'anime'
p969
I1
sS'youve'
p970
I10
sS'book'
p971
I1
sS"'Where"
p972
I1
sS'whats'
p973
I5
sS'aliens'
p974
I1
sS'profession'
p975
I1
sS'son'
p976
I1
sS'doesnt'
p977
I1
sS"'Is"
p978
I1
sS'annoys'
p979
I1
sS'constantly'
p980
I1
sS'question'
p981
I2
sS"'People"
p982
I2
sS'fast'
p983
I1
sS'fight'
p984
I2
sS'start'
p985
I2
sS'unspoken'
p986
I1
sS'way'
p987
I4
sS'biggest'
p988
I2
sS':'
p989
I5
sS'cases'
p990
I1
sS'war'
p991
I1
sS'happy'
p992
I1
sS'complete'
p993
I1
sS'batman'
p994
I1
sS"'Anime-watchers"
p995
I1
sS'memory'
p996
I1
sS'RIGHT'
p997
I1
sS'hear'
p998
I1
sS'Whats'
p999
I4
sS'line'
p1000
I2
sS'true'
p1001
I2
sS'eat'
p1002
I1
sS'buying'
p1003
I1
sS'genitals'
p1004
I1
sS'made'
p1005
I4
sS'places'
p1006
I1
sS'wish'
p1007
I3
sS'official'
p1008
I1
sS'cruel'
p1009
I1
sS'Brits'
p1010
I1
sS'problem'
p1011
I1
sS'politically'
p1012
I1
sS'called'
p1013
I1
sS'meaningless'
p1014
I1
sS'deep'
p1015
I1
sS'How'
p1016
I1
sS'tasty'
p1017
I1
sS'watched'
p1018
I1
sS'annoying'
p1019
I3
sS'film'
p1020
I2
sS'incorrect'
p1021
I1
sS'TV'
p1022
I2
sS'reality'
p1023
I1
sS'interested'
p1024
I2
sS'USs'
p1025
I1
sS'someones'
p1026
I1
sS'incredibly'
p1027
I1
sS'repeat'
p1028
I1
sS'AD'
p1029
I1
sS'vocabulary'
p1030
I1
sS'diet'
p1031
I1
sS'much'
p1032
I2
sS'fell'
p1033
I1
sS'furthest'
p1034
I1
sS'3rd'
p1035
I1
sS'practically'
p1036
I1
sS'age'
p1037
I1
sS'American'
p1038
I1
sS'time'
p1039
I4
sS'lives'
p1040
I1
sS'underrated'
p1041
I1
sS'buffalo'
p1042
I1
sS"'I"
p1043
I2
sS'songs'
p1044
I1
saI1212
a.